(lp0
(dp1
S'src'
p2
S'0.0.0.0'
p3
sS'http'
p4
NsS'dst'
p5
S'255.255.255.255'
p6
sS'dport'
p7
I67
sS'sport'
p8
I68
sS'type'
p9
S'udp'
p10
sa(dp11
g2
S'192.168.42.1'
p12
sg4
Nsg5
S'255.255.255.255'
p13
sg7
I68
sg8
I67
sg9
g10
sa(dp14
g2
S'0.0.0.0'
p15
sg4
Nsg5
S'255.255.255.255'
p16
sg7
I67
sg8
I68
sg9
g10
sa(dp17
g2
S'192.168.42.1'
p18
sg4
Nsg5
S'255.255.255.255'
p19
sg7
I68
sg8
I67
sg9
g10
sa(dp20
g2
S'0.0.0.0'
p21
sg4
Nsg5
S'255.255.255.255'
p22
sg7
I67
sg8
I68
sg9
g10
sa(dp23
g2
S'192.168.42.1'
p24
sg4
Nsg5
S'192.168.42.32'
p25
sg7
I68
sg8
I67
sg9
g10
sa(dp26
g2
S'0.0.0.0'
p27
sg4
Nsg5
S'255.255.255.255'
p28
sg7
I67
sg8
I68
sg9
g10
sa(dp29
g2
S'192.168.42.1'
p30
sg4
Nsg5
S'192.168.42.32'
p31
sg7
I68
sg8
I67
sg9
g10
sa(dp32
g2
S'192.168.42.32'
p33
sg4
Nsg5
S'8.8.8.8'
p34
sg7
I53
sg8
I53649
sg9
g10
sa(dp35
g2
S'8.8.8.8'
p36
sg4
Nsg5
S'192.168.42.32'
p37
sg7
I53649
sg8
I53
sg9
g10
sa(dp38
g2
S'192.168.42.32'
p39
sg4
Nsg5
S'17.253.53.208'
p40
sg7
I80
sg8
I49250
sg9
S'tcp'
p41
sa(dp42
g2
S'17.253.53.208'
p43
sg4
Nsg5
S'192.168.42.32'
p44
sg7
I49250
sg8
I80
sg9
g41
sa(dp45
g2
S'192.168.42.32'
p46
sg4
Nsg5
S'224.0.0.251'
p47
sg7
I5353
sg8
I5353
sg9
g10
sa(dp48
g2
S'192.168.42.32'
p49
sg4
Nsg5
S'17.253.53.208'
p50
sg7
I80
sg8
I49250
sg9
g41
sa(dp51
g2
S'192.168.42.32'
p52
sg4
I01
sg5
S'17.253.53.208'
p53
sS'host'
p54
S'captive.apple.com'
p55
sg7
I80
sS'path'
p56
S'/mDQArB9orEii/Xmql6oYqtUtn/f6xY5snMJcW8/CEm0Ioc1d0d8/9OdEOfkBOY4y.html'
p57
sg8
I49250
sg9
g41
sS'method'
p58
S'GET'
p59
sa(dp60
g2
S'17.253.53.208'
p61
sg4
Nsg5
S'192.168.42.32'
p62
sg7
I49250
sg8
I80
sg9
g41
sa(dp63
g2
S'17.253.53.208'
p64
sg4
Nsg5
S'192.168.42.32'
p65
sg7
I49250
sg8
I80
sg9
g41
sa(dp66
g2
S'17.253.53.208'
p67
sg4
Nsg5
S'192.168.42.32'
p68
sg7
I49250
sg8
I80
sg9
g41
sa(dp69
g2
S'192.168.42.32'
p70
sg4
Nsg5
S'17.253.53.208'
p71
sg7
I80
sg8
I49250
sg9
g41
sa(dp72
g2
S'192.168.42.32'
p73
sg4
Nsg5
S'17.253.53.208'
p74
sg7
I80
sg8
I49250
sg9
g41
sa(dp75
g2
S'192.168.42.32'
p76
sg4
Nsg5
S'17.253.53.208'
p77
sg7
I80
sg8
I49250
sg9
g41
sa(dp78
g2
S'17.253.53.208'
p79
sg4
Nsg5
S'192.168.42.32'
p80
sg7
I49250
sg8
I80
sg9
g41
sa(dp81
g2
S'192.168.42.32'
p82
sg4
Nsg5
S'8.8.8.8'
p83
sg7
I53
sg8
I63872
sg9
g10
sa(dp84
g2
S'192.168.42.32'
p85
sg4
Nsg5
S'8.8.8.8'
p86
sg7
I53
sg8
I61346
sg9
g10
sa(dp87
g2
S'192.168.42.32'
p88
sg4
Nsg5
S'8.8.8.8'
p89
sg7
I53
sg8
I52256
sg9
g10
sa(dp90
g2
S'192.168.42.32'
p91
sg4
Nsg5
S'8.8.8.8'
p92
sg7
I53
sg8
I65246
sg9
g10
sa(dp93
g2
S'192.168.42.32'
p94
sg4
Nsg5
S'8.8.8.8'
p95
sg7
I53
sg8
I59307
sg9
g10
sa(dp96
g2
S'192.168.42.32'
p97
sg4
Nsg5
S'8.8.8.8'
p98
sg7
I53
sg8
I53247
sg9
g10
sa(dp99
g2
S'192.168.42.32'
p100
sg4
Nsg5
S'8.8.8.8'
p101
sg7
I53
sg8
I55637
sg9
g10
sa(dp102
g2
S'8.8.8.8'
p103
sg4
Nsg5
S'192.168.42.32'
p104
sg7
I63872
sg8
I53
sg9
g10
sa(dp105
g2
S'8.8.8.8'
p106
sg4
Nsg5
S'192.168.42.32'
p107
sg7
I65246
sg8
I53
sg9
g10
sa(dp108
g2
S'8.8.8.8'
p109
sg4
Nsg5
S'192.168.42.32'
p110
sg7
I53247
sg8
I53
sg9
g10
sa(dp111
g2
S'8.8.8.8'
p112
sg4
Nsg5
S'192.168.42.32'
p113
sg7
I59307
sg8
I53
sg9
g10
sa(dp114
g2
S'8.8.8.8'
p115
sg4
Nsg5
S'192.168.42.32'
p116
sg7
I55637
sg8
I53
sg9
g10
sa(dp117
g2
S'192.168.42.32'
p118
sg4
Nsg5
S'173.223.106.91'
p119
sg7
I80
sg8
I49251
sg9
g41
sa(dp120
g2
S'8.8.8.8'
p121
sg4
Nsg5
S'192.168.42.32'
p122
sg7
I61346
sg8
I53
sg9
g10
sa(dp123
g2
S'8.8.8.8'
p124
sg4
Nsg5
S'192.168.42.32'
p125
sg7
I52256
sg8
I53
sg9
g10
sa(dp126
g2
S'173.223.106.91'
p127
sg4
Nsg5
S'192.168.42.32'
p128
sg7
I49251
sg8
I80
sg9
g41
sa(dp129
g2
S'192.168.42.32'
p130
sg4
Nsg5
S'173.223.106.91'
p131
sg7
I80
sg8
I49251
sg9
g41
sa(dp132
g2
S'192.168.42.32'
p133
sg4
I01
sg5
S'173.223.106.91'
p134
sg54
S'init-p01st.push.apple.com'
p135
sg7
I80
sg56
S'/bag'
p136
sg8
I49251
sg9
g41
sg58
S'GET'
p137
sa(dp138
g2
S'173.223.106.91'
p139
sg4
Nsg5
S'192.168.42.32'
p140
sg7
I49251
sg8
I80
sg9
g41
sa(dp141
g2
S'173.223.106.91'
p142
sg4
Nsg5
S'192.168.42.32'
p143
sg7
I49251
sg8
I80
sg9
g41
sa(dp144
g2
S'173.223.106.91'
p145
sg4
Nsg5
S'192.168.42.32'
p146
sg7
I49251
sg8
I80
sg9
g41
sa(dp147
g2
S'173.223.106.91'
p148
sg4
Nsg5
S'192.168.42.32'
p149
sg7
I49251
sg8
I80
sg9
g41
sa(dp150
g2
S'173.223.106.91'
p151
sg4
Nsg5
S'192.168.42.32'
p152
sg7
I49251
sg8
I80
sg9
g41
sa(dp153
g2
S'173.223.106.91'
p154
sg4
Nsg5
S'192.168.42.32'
p155
sg7
I49251
sg8
I80
sg9
g41
sa(dp156
g2
S'173.223.106.91'
p157
sg4
Nsg5
S'192.168.42.32'
p158
sg7
I49251
sg8
I80
sg9
g41
sa(dp159
g2
S'192.168.42.32'
p160
sg4
Nsg5
S'173.223.106.91'
p161
sg7
I80
sg8
I49251
sg9
g41
sa(dp162
g2
S'192.168.42.32'
p163
sg4
Nsg5
S'173.223.106.91'
p164
sg7
I80
sg8
I49251
sg9
g41
sa(dp165
g2
S'192.168.42.32'
p166
sg4
Nsg5
S'173.223.106.91'
p167
sg7
I80
sg8
I49251
sg9
g41
sa(dp168
g2
S'192.168.42.32'
p169
sg4
Nsg5
S'173.223.106.91'
p170
sg7
I80
sg8
I49251
sg9
g41
sa(dp171
g2
S'192.168.42.32'
p172
sg4
Nsg5
S'8.8.8.8'
p173
sg7
I53
sg8
I61250
sg9
g10
sa(dp174
g2
S'8.8.8.8'
p175
sg4
Nsg5
S'192.168.42.32'
p176
sg7
I61250
sg8
I53
sg9
g10
sa(dp177
g2
S'192.168.42.32'
p178
sg4
Nsg5
S'17.252.76.85'
p179
sg7
I5223
sg8
I49252
sg9
g41
sa(dp180
g2
S'17.252.76.85'
p181
sg4
Nsg5
S'192.168.42.32'
p182
sg7
I49252
sg8
I5223
sg9
g41
sa(dp183
g2
S'192.168.42.32'
p184
sg4
Nsg5
S'17.252.76.85'
p185
sg7
I5223
sg8
I49252
sg9
g41
sa(dp186
g2
S'192.168.42.32'
p187
sg4
Nsg5
S'17.252.76.85'
p188
sg7
I5223
sg8
I49252
sg9
g41
sa(dp189
g2
S'17.252.76.85'
p190
sg4
Nsg5
S'192.168.42.32'
p191
sg7
I49252
sg8
I5223
sg9
g41
sa(dp192
g2
S'17.252.76.85'
p193
sg4
Nsg5
S'192.168.42.32'
p194
sg7
I49252
sg8
I5223
sg9
g41
sa(dp195
g2
S'17.252.76.85'
p196
sg4
Nsg5
S'192.168.42.32'
p197
sg7
I49252
sg8
I5223
sg9
g41
sa(dp198
g2
S'192.168.42.32'
p199
sg4
Nsg5
S'17.252.76.85'
p200
sg7
I5223
sg8
I49252
sg9
g41
sa(dp201
g2
S'192.168.42.32'
p202
sg4
Nsg5
S'17.252.76.85'
p203
sg7
I5223
sg8
I49252
sg9
g41
sa(dp204
g2
S'17.252.76.85'
p205
sg4
Nsg5
S'192.168.42.32'
p206
sg7
I49252
sg8
I5223
sg9
g41
sa(dp207
g2
S'192.168.42.32'
p208
sg4
Nsg5
S'224.0.0.251'
p209
sg7
I5353
sg8
I5353
sg9
g10
sa(dp210
g2
S'192.168.42.32'
p211
sg4
Nsg5
S'17.252.76.85'
p212
sg7
I5223
sg8
I49252
sg9
g41
sa(dp213
g2
S'17.252.76.85'
p214
sg4
Nsg5
S'192.168.42.32'
p215
sg7
I49252
sg8
I5223
sg9
g41
sa(dp216
g2
S'17.252.76.85'
p217
sg4
Nsg5
S'192.168.42.32'
p218
sg7
I49252
sg8
I5223
sg9
g41
sa(dp219
g2
S'192.168.42.32'
p220
sg4
Nsg5
S'17.252.76.85'
p221
sg7
I5223
sg8
I49252
sg9
g41
sa(dp222
g2
S'192.168.42.32'
p223
sg4
Nsg5
S'17.252.76.85'
p224
sg7
I5223
sg8
I49252
sg9
g41
sa(dp225
g2
S'17.252.76.85'
p226
sg4
Nsg5
S'192.168.42.32'
p227
sg7
I49252
sg8
I5223
sg9
g41
sa(dp228
g2
S'192.168.42.32'
p229
sg4
Nsg5
S'17.252.76.85'
p230
sg7
I5223
sg8
I49252
sg9
g41
sa(dp231
g2
S'192.168.42.32'
p232
sg4
Nsg5
S'17.252.76.85'
p233
sg7
I5223
sg8
I49252
sg9
g41
sa(dp234
g2
S'17.252.76.85'
p235
sg4
Nsg5
S'192.168.42.32'
p236
sg7
I49252
sg8
I5223
sg9
g41
sa(dp237
g2
S'192.168.42.32'
p238
sg4
Nsg5
S'17.252.76.85'
p239
sg7
I5223
sg8
I49252
sg9
g41
sa(dp240
g2
S'17.252.76.85'
p241
sg4
Nsg5
S'192.168.42.32'
p242
sg7
I49252
sg8
I5223
sg9
g41
sa(dp243
g2
S'192.168.42.32'
p244
sg4
Nsg5
S'17.252.76.85'
p245
sg7
I5223
sg8
I49252
sg9
g41
sa(dp246
g2
S'192.168.42.32'
p247
sg4
Nsg5
S'17.252.76.85'
p248
sg7
I5223
sg8
I49252
sg9
g41
sa(dp249
g2
S'17.252.76.85'
p250
sg4
Nsg5
S'192.168.42.32'
p251
sg7
I49252
sg8
I5223
sg9
g41
sa(dp252
g2
S'192.168.42.32'
p253
sg4
Nsg5
S'17.252.76.85'
p254
sg7
I5223
sg8
I49252
sg9
g41
sa(dp255
g2
S'17.252.76.85'
p256
sg4
Nsg5
S'192.168.42.32'
p257
sg7
I49252
sg8
I5223
sg9
g41
sa(dp258
g2
S'17.252.76.85'
p259
sg4
Nsg5
S'192.168.42.32'
p260
sg7
I49252
sg8
I5223
sg9
g41
sa(dp261
g2
S'192.168.42.32'
p262
sg4
Nsg5
S'17.252.76.85'
p263
sg7
I5223
sg8
I49252
sg9
g41
sa(dp264
g2
S'192.168.42.32'
p265
sg4
Nsg5
S'17.252.76.85'
p266
sg7
I5223
sg8
I49252
sg9
g41
sa(dp267
g2
S'192.168.42.32'
p268
sg4
Nsg5
S'224.0.0.251'
p269
sg7
I5353
sg8
I5353
sg9
g10
sa(dp270
g2
S'17.252.76.85'
p271
sg4
Nsg5
S'192.168.42.32'
p272
sg7
I49252
sg8
I5223
sg9
g41
sa(dp273
g2
S'192.168.42.32'
p274
sg4
Nsg5
S'17.252.76.85'
p275
sg7
I5223
sg8
I49252
sg9
g41
sa(dp276
g2
S'17.252.76.85'
p277
sg4
Nsg5
S'192.168.42.32'
p278
sg7
I49252
sg8
I5223
sg9
g41
sa(dp279
g2
S'17.252.76.85'
p280
sg4
Nsg5
S'192.168.42.32'
p281
sg7
I49252
sg8
I5223
sg9
g41
sa(dp282
g2
S'192.168.42.32'
p283
sg4
Nsg5
S'17.252.76.85'
p284
sg7
I5223
sg8
I49252
sg9
g41
sa(dp285
g2
S'192.168.42.32'
p286
sg4
Nsg5
S'17.252.76.85'
p287
sg7
I5223
sg8
I49252
sg9
g41
sa(dp288
g2
S'17.252.76.85'
p289
sg4
Nsg5
S'192.168.42.32'
p290
sg7
I49252
sg8
I5223
sg9
g41
sa(dp291
g2
S'17.252.76.85'
p292
sg4
Nsg5
S'192.168.42.32'
p293
sg7
I49252
sg8
I5223
sg9
g41
sa(dp294
g2
S'192.168.42.32'
p295
sg4
Nsg5
S'17.252.76.85'
p296
sg7
I5223
sg8
I49252
sg9
g41
sa(dp297
g2
S'17.252.76.85'
p298
sg4
Nsg5
S'192.168.42.32'
p299
sg7
I49252
sg8
I5223
sg9
g41
sa(dp300
g2
S'192.168.42.32'
p301
sg4
Nsg5
S'17.252.76.85'
p302
sg7
I5223
sg8
I49252
sg9
g41
sa(dp303
g2
S'17.252.76.85'
p304
sg4
Nsg5
S'192.168.42.32'
p305
sg7
I49252
sg8
I5223
sg9
g41
sa(dp306
g2
S'192.168.42.32'
p307
sg4
Nsg5
S'17.252.76.85'
p308
sg7
I5223
sg8
I49252
sg9
g41
sa(dp309
g2
S'192.168.42.32'
p310
sg4
Nsg5
S'224.0.0.251'
p311
sg7
I5353
sg8
I5353
sg9
g10
sa(dp312
g2
S'192.168.42.32'
p313
sg4
Nsg5
S'192.168.42.1'
p314
sg7
I192
sg8
I65242
sg9
g10
sa(dp315
g2
S'17.252.76.85'
p316
sg4
Nsg5
S'192.168.42.32'
p317
sg7
I49252
sg8
I5223
sg9
g41
sa(dp318
g2
S'192.168.42.32'
p319
sg4
Nsg5
S'17.252.76.85'
p320
sg7
I5223
sg8
I49252
sg9
g41
sa(dp321
g2
S'192.168.42.32'
p322
sg4
Nsg5
S'192.168.42.255'
p323
sg7
I137
sg8
I137
sg9
g10
sa(dp324
g2
S'192.168.42.32'
p325
sg4
Nsg5
S'224.0.0.251'
p326
sg7
I5353
sg8
I5353
sg9
g10
sa(dp327
g2
S'192.168.42.32'
p328
sg4
Nsg5
S'224.0.0.251'
p329
sg7
I5353
sg8
I5353
sg9
g10
sa(dp330
g2
S'192.168.42.32'
p331
sg4
Nsg5
S'192.168.42.1'
p332
sg7
I192
sg8
I65242
sg9
g10
sa(dp333
g2
S'192.168.42.32'
p334
sg4
Nsg5
S'224.0.0.251'
p335
sg7
I5353
sg8
I5353
sg9
g10
sa(dp336
g2
S'192.168.42.32'
p337
sg4
Nsg5
S'17.253.52.125'
p338
sg7
I123
sg8
I123
sg9
g10
sa(dp339
g2
S'17.253.52.125'
p340
sg4
Nsg5
S'192.168.42.32'
p341
sg7
I123
sg8
I123
sg9
g10
sa(dp342
g2
S'192.168.42.32'
p343
sg4
Nsg5
S'192.168.42.255'
p344
sg7
I137
sg8
I137
sg9
g10
sa(dp345
g2
S'192.168.42.32'
p346
sg4
Nsg5
S'192.168.42.1'
p347
sg7
I192
sg8
I65242
sg9
g10
sa(dp348
g2
S'192.168.42.32'
p349
sg4
Nsg5
S'17.252.76.85'
p350
sg7
I5223
sg8
I49252
sg9
g41
sa(dp351
g2
S'17.252.76.85'
p352
sg4
Nsg5
S'192.168.42.32'
p353
sg7
I49252
sg8
I5223
sg9
g41
sa(dp354
g2
S'17.252.76.85'
p355
sg4
Nsg5
S'192.168.42.32'
p356
sg7
I49252
sg8
I5223
sg9
g41
sa(dp357
g2
S'192.168.42.32'
p358
sg4
Nsg5
S'17.252.76.85'
p359
sg7
I5223
sg8
I49252
sg9
g41
sa(dp360
g2
S'192.168.42.32'
p361
sg4
Nsg5
S'192.168.42.1'
p362
sg7
I192
sg8
I65242
sg9
g10
sa(dp363
g2
S'192.168.42.32'
p364
sg4
Nsg5
S'8.8.8.8'
p365
sg7
I53
sg8
I52952
sg9
g10
sa(dp366
g2
S'192.168.42.32'
p367
sg4
Nsg5
S'192.168.42.255'
p368
sg7
I137
sg8
I137
sg9
g10
sa(dp369
g2
S'192.168.42.32'
p370
sg4
Nsg5
S'224.0.0.251'
p371
sg7
I5353
sg8
I5353
sg9
g10
sa(dp372
g2
S'8.8.8.8'
p373
sg4
Nsg5
S'192.168.42.32'
p374
sg7
I52952
sg8
I53
sg9
g10
sa(dp375
g2
S'192.168.42.32'
p376
sg4
Nsg5
S'17.248.145.201'
p377
sg7
I443
sg8
I49253
sg9
g41
sa(dp378
g2
S'17.248.145.201'
p379
sg4
Nsg5
S'192.168.42.32'
p380
sg7
I49253
sg8
I443
sg9
g41
sa(dp381
g2
S'192.168.42.32'
p382
sg4
Nsg5
S'17.248.145.201'
p383
sg7
I443
sg8
I49253
sg9
g41
sa(dp384
g2
S'192.168.42.32'
p385
sg4
Nsg5
S'224.0.0.251'
p386
sg7
I5353
sg8
I5353
sg9
g10
sa(dp387
g2
S'17.248.145.201'
p388
sg4
Nsg5
S'192.168.42.32'
p389
sg7
I49253
sg8
I443
sg9
g41
sa(dp390
g2
S'17.248.145.201'
p391
sg4
Nsg5
S'192.168.42.32'
p392
sg7
I49253
sg8
I443
sg9
g41
sa(dp393
g2
S'17.248.145.201'
p394
sg4
Nsg5
S'192.168.42.32'
p395
sg7
I49253
sg8
I443
sg9
g41
sa(dp396
g2
S'17.248.145.201'
p397
sg4
Nsg5
S'192.168.42.32'
p398
sg7
I49253
sg8
I443
sg9
g41
sa(dp399
g2
S'17.248.145.201'
p400
sg4
Nsg5
S'192.168.42.32'
p401
sg7
I49253
sg8
I443
sg9
g41
sa(dp402
g2
S'192.168.42.32'
p403
sg4
Nsg5
S'17.248.145.201'
p404
sg7
I443
sg8
I49253
sg9
g41
sa(dp405
g2
S'192.168.42.32'
p406
sg4
Nsg5
S'17.248.145.201'
p407
sg7
I443
sg8
I49253
sg9
g41
sa(dp408
g2
S'192.168.42.32'
p409
sg4
Nsg5
S'17.248.145.201'
p410
sg7
I443
sg8
I49253
sg9
g41
sa(dp411
g2
S'192.168.42.32'
p412
sg4
Nsg5
S'17.248.145.201'
p413
sg7
I443
sg8
I49253
sg9
g41
sa(dp414
g2
S'192.168.42.32'
p415
sg4
Nsg5
S'17.248.145.201'
p416
sg7
I443
sg8
I49253
sg9
g41
sa(dp417
g2
S'192.168.42.32'
p418
sg4
Nsg5
S'17.248.145.201'
p419
sg7
I443
sg8
I49253
sg9
g41
sa(dp420
g2
S'17.248.145.201'
p421
sg4
Nsg5
S'192.168.42.32'
p422
sg7
I49253
sg8
I443
sg9
g41
sa(dp423
g2
S'17.248.145.201'
p424
sg4
Nsg5
S'192.168.42.32'
p425
sg7
I49253
sg8
I443
sg9
g41
sa(dp426
g2
S'192.168.42.32'
p427
sg4
Nsg5
S'17.248.145.201'
p428
sg7
I443
sg8
I49253
sg9
g41
sa(dp429
g2
S'192.168.42.32'
p430
sg4
Nsg5
S'17.248.145.201'
p431
sg7
I443
sg8
I49253
sg9
g41
sa(dp432
g2
S'17.248.145.201'
p433
sg4
Nsg5
S'192.168.42.32'
p434
sg7
I49253
sg8
I443
sg9
g41
sa(dp435
g2
S'17.248.145.201'
p436
sg4
Nsg5
S'192.168.42.32'
p437
sg7
I49253
sg8
I443
sg9
g41
sa(dp438
g2
S'17.248.145.201'
p439
sg4
Nsg5
S'192.168.42.32'
p440
sg7
I49253
sg8
I443
sg9
g41
sa(dp441
g2
S'17.248.145.201'
p442
sg4
Nsg5
S'192.168.42.32'
p443
sg7
I49253
sg8
I443
sg9
g41
sa(dp444
g2
S'17.248.145.201'
p445
sg4
Nsg5
S'192.168.42.32'
p446
sg7
I49253
sg8
I443
sg9
g41
sa(dp447
g2
S'192.168.42.32'
p448
sg4
Nsg5
S'8.8.8.8'
p449
sg7
I53
sg8
I65107
sg9
g10
sa(dp450
g2
S'192.168.42.32'
p451
sg4
Nsg5
S'17.248.145.201'
p452
sg7
I443
sg8
I49253
sg9
g41
sa(dp453
g2
S'192.168.42.32'
p454
sg4
Nsg5
S'17.248.145.201'
p455
sg7
I443
sg8
I49253
sg9
g41
sa(dp456
g2
S'192.168.42.32'
p457
sg4
Nsg5
S'192.168.42.1'
p458
sg7
I192
sg8
I65242
sg9
g10
sa(dp459
g2
S'8.8.8.8'
p460
sg4
Nsg5
S'192.168.42.32'
p461
sg7
I65107
sg8
I53
sg9
g10
sa(dp462
g2
S'192.168.42.32'
p463
sg4
Nsg5
S'62.4.254.88'
p464
sg7
I80
sg8
I49254
sg9
g41
sa(dp465
g2
S'62.4.254.88'
p466
sg4
Nsg5
S'192.168.42.32'
p467
sg7
I49254
sg8
I80
sg9
g41
sa(dp468
g2
S'192.168.42.32'
p469
sg4
Nsg5
S'8.8.8.8'
p470
sg7
I53
sg8
I49918
sg9
g10
sa(dp471
g2
S'192.168.42.32'
p472
sg4
Nsg5
S'62.4.254.88'
p473
sg7
I80
sg8
I49254
sg9
g41
sa(dp474
g2
S'192.168.42.32'
p475
sg4
I01
sg5
S'62.4.254.88'
p476
sg54
S'gsp1.apple.com'
p477
sg7
I80
sg56
S'/pep/gcc'
p478
sg8
I49254
sg9
g41
sg58
S'GET'
p479
sa(dp480
g2
S'62.4.254.88'
p481
sg4
Nsg5
S'192.168.42.32'
p482
sg7
I49254
sg8
I80
sg9
g41
sa(dp483
g2
S'62.4.254.88'
p484
sg4
Nsg5
S'192.168.42.32'
p485
sg7
I49254
sg8
I80
sg9
g41
sa(dp486
g2
S'192.168.42.32'
p487
sg4
Nsg5
S'62.4.254.88'
p488
sg7
I80
sg8
I49254
sg9
g41
sa(dp489
g2
S'8.8.8.8'
p490
sg4
Nsg5
S'192.168.42.32'
p491
sg7
I49918
sg8
I53
sg9
g10
sa(dp492
g2
S'192.168.42.32'
p493
sg4
Nsg5
S'17.248.145.76'
p494
sg7
I443
sg8
I49255
sg9
g41
sa(dp495
g2
S'17.248.145.76'
p496
sg4
Nsg5
S'192.168.42.32'
p497
sg7
I49255
sg8
I443
sg9
g41
sa(dp498
g2
S'192.168.42.32'
p499
sg4
Nsg5
S'17.248.145.76'
p500
sg7
I443
sg8
I49255
sg9
g41
sa(dp501
g2
S'192.168.42.32'
p502
sg4
Nsg5
S'17.248.145.76'
p503
sg7
I443
sg8
I49255
sg9
g41
sa(dp504
g2
S'17.248.145.76'
p505
sg4
Nsg5
S'192.168.42.32'
p506
sg7
I49255
sg8
I443
sg9
g41
sa(dp507
g2
S'17.248.145.76'
p508
sg4
Nsg5
S'192.168.42.32'
p509
sg7
I49255
sg8
I443
sg9
g41
sa(dp510
g2
S'17.248.145.76'
p511
sg4
Nsg5
S'192.168.42.32'
p512
sg7
I49255
sg8
I443
sg9
g41
sa(dp513
g2
S'17.248.145.76'
p514
sg4
Nsg5
S'192.168.42.32'
p515
sg7
I49255
sg8
I443
sg9
g41
sa(dp516
g2
S'17.248.145.76'
p517
sg4
Nsg5
S'192.168.42.32'
p518
sg7
I49255
sg8
I443
sg9
g41
sa(dp519
g2
S'17.248.145.76'
p520
sg4
Nsg5
S'192.168.42.32'
p521
sg7
I49255
sg8
I443
sg9
g41
sa(dp522
g2
S'17.248.145.76'
p523
sg4
Nsg5
S'192.168.42.32'
p524
sg7
I49255
sg8
I443
sg9
g41
sa(dp525
g2
S'192.168.42.32'
p526
sg4
Nsg5
S'8.8.8.8'
p527
sg7
I53
sg8
I53985
sg9
g10
sa(dp528
g2
S'192.168.42.32'
p529
sg4
Nsg5
S'17.248.145.76'
p530
sg7
I443
sg8
I49255
sg9
g41
sa(dp531
g2
S'192.168.42.32'
p532
sg4
Nsg5
S'17.248.145.76'
p533
sg7
I443
sg8
I49255
sg9
g41
sa(dp534
g2
S'192.168.42.32'
p535
sg4
Nsg5
S'17.248.145.76'
p536
sg7
I443
sg8
I49255
sg9
g41
sa(dp537
g2
S'192.168.42.32'
p538
sg4
Nsg5
S'17.248.145.76'
p539
sg7
I443
sg8
I49255
sg9
g41
sa(dp540
g2
S'192.168.42.32'
p541
sg4
Nsg5
S'17.248.145.76'
p542
sg7
I443
sg8
I49255
sg9
g41
sa(dp543
g2
S'192.168.42.32'
p544
sg4
Nsg5
S'17.248.145.76'
p545
sg7
I443
sg8
I49255
sg9
g41
sa(dp546
g2
S'192.168.42.32'
p547
sg4
Nsg5
S'17.248.145.76'
p548
sg7
I443
sg8
I49255
sg9
g41
sa(dp549
g2
S'192.168.42.32'
p550
sg4
Nsg5
S'17.248.145.76'
p551
sg7
I443
sg8
I49255
sg9
g41
sa(dp552
g2
S'8.8.8.8'
p553
sg4
Nsg5
S'192.168.42.32'
p554
sg7
I53985
sg8
I53
sg9
g10
sa(dp555
g2
S'17.248.145.76'
p556
sg4
Nsg5
S'192.168.42.32'
p557
sg7
I49255
sg8
I443
sg9
g41
sa(dp558
g2
S'17.248.145.76'
p559
sg4
Nsg5
S'192.168.42.32'
p560
sg7
I49255
sg8
I443
sg9
g41
sa(dp561
g2
S'192.168.42.32'
p562
sg4
Nsg5
S'192.168.42.1'
p563
sg7
I192
sg8
I65242
sg9
g10
sa(dp564
g2
S'192.168.42.32'
p565
sg4
Nsg5
S'17.248.145.76'
p566
sg7
I443
sg8
I49255
sg9
g41
sa(dp567
g2
S'192.168.42.32'
p568
sg4
Nsg5
S'17.134.127.97'
p569
sg7
I443
sg8
I49256
sg9
g41
sa(dp570
g2
S'192.168.42.32'
p571
sg4
Nsg5
S'17.248.145.76'
p572
sg7
I443
sg8
I49255
sg9
g41
sa(dp573
g2
S'17.248.145.76'
p574
sg4
Nsg5
S'192.168.42.32'
p575
sg7
I49255
sg8
I443
sg9
g41
sa(dp576
g2
S'192.168.42.32'
p577
sg4
Nsg5
S'17.134.127.79'
p578
sg7
I443
sg8
I49257
sg9
g41
sa(dp579
g2
S'17.134.127.97'
p580
sg4
Nsg5
S'192.168.42.32'
p581
sg7
I49256
sg8
I443
sg9
g41
sa(dp582
g2
S'192.168.42.32'
p583
sg4
Nsg5
S'17.134.127.97'
p584
sg7
I443
sg8
I49256
sg9
g41
sa(dp585
g2
S'192.168.42.32'
p586
sg4
Nsg5
S'17.134.127.97'
p587
sg7
I443
sg8
I49256
sg9
g41
sa(dp588
g2
S'17.134.127.79'
p589
sg4
Nsg5
S'192.168.42.32'
p590
sg7
I49257
sg8
I443
sg9
g41
sa(dp591
g2
S'192.168.42.32'
p592
sg4
Nsg5
S'17.134.127.79'
p593
sg7
I443
sg8
I49257
sg9
g41
sa(dp594
g2
S'17.134.127.97'
p595
sg4
Nsg5
S'192.168.42.32'
p596
sg7
I49256
sg8
I443
sg9
g41
sa(dp597
g2
S'17.134.127.97'
p598
sg4
Nsg5
S'192.168.42.32'
p599
sg7
I49256
sg8
I443
sg9
g41
sa(dp600
g2
S'17.134.127.97'
p601
sg4
Nsg5
S'192.168.42.32'
p602
sg7
I49256
sg8
I443
sg9
g41
sa(dp603
g2
S'17.248.145.76'
p604
sg4
Nsg5
S'192.168.42.32'
p605
sg7
I49255
sg8
I443
sg9
g41
sa(dp606
g2
S'17.248.145.76'
p607
sg4
Nsg5
S'192.168.42.32'
p608
sg7
I49255
sg8
I443
sg9
g41
sa(dp609
g2
S'192.168.42.32'
p610
sg4
Nsg5
S'17.134.127.97'
p611
sg7
I443
sg8
I49256
sg9
g41
sa(dp612
g2
S'192.168.42.32'
p613
sg4
Nsg5
S'17.134.127.97'
p614
sg7
I443
sg8
I49256
sg9
g41
sa(dp615
g2
S'192.168.42.32'
p616
sg4
Nsg5
S'17.134.127.97'
p617
sg7
I443
sg8
I49256
sg9
g41
sa(dp618
g2
S'192.168.42.32'
p619
sg4
Nsg5
S'17.248.145.76'
p620
sg7
I443
sg8
I49255
sg9
g41
sa(dp621
g2
S'192.168.42.32'
p622
sg4
Nsg5
S'17.248.145.76'
p623
sg7
I443
sg8
I49255
sg9
g41
sa(dp624
g2
S'192.168.42.32'
p625
sg4
Nsg5
S'17.134.127.97'
p626
sg7
I443
sg8
I49256
sg9
g41
sa(dp627
g2
S'192.168.42.32'
p628
sg4
Nsg5
S'17.134.127.97'
p629
sg7
I443
sg8
I49256
sg9
g41
sa(dp630
g2
S'192.168.42.32'
p631
sg4
Nsg5
S'17.134.127.97'
p632
sg7
I443
sg8
I49256
sg9
g41
sa(dp633
g2
S'17.248.145.76'
p634
sg4
Nsg5
S'192.168.42.32'
p635
sg7
I49255
sg8
I443
sg9
g41
sa(dp636
g2
S'17.248.145.76'
p637
sg4
Nsg5
S'192.168.42.32'
p638
sg7
I49255
sg8
I443
sg9
g41
sa(dp639
g2
S'192.168.42.32'
p640
sg4
Nsg5
S'17.248.145.76'
p641
sg7
I443
sg8
I49255
sg9
g41
sa(dp642
g2
S'17.134.127.97'
p643
sg4
Nsg5
S'192.168.42.32'
p644
sg7
I49256
sg8
I443
sg9
g41
sa(dp645
g2
S'17.134.127.97'
p646
sg4
Nsg5
S'192.168.42.32'
p647
sg7
I49256
sg8
I443
sg9
g41
sa(dp648
g2
S'17.134.127.97'
p649
sg4
Nsg5
S'192.168.42.32'
p650
sg7
I49256
sg8
I443
sg9
g41
sa(dp651
g2
S'17.134.127.97'
p652
sg4
Nsg5
S'192.168.42.32'
p653
sg7
I49256
sg8
I443
sg9
g41
sa(dp654
g2
S'192.168.42.32'
p655
sg4
Nsg5
S'17.134.127.97'
p656
sg7
I443
sg8
I49256
sg9
g41
sa(dp657
g2
S'192.168.42.32'
p658
sg4
Nsg5
S'17.134.127.97'
p659
sg7
I443
sg8
I49256
sg9
g41
sa(dp660
g2
S'192.168.42.32'
p661
sg4
Nsg5
S'17.134.127.97'
p662
sg7
I443
sg8
I49258
sg9
g41
sa(dp663
g2
S'192.168.42.32'
p664
sg4
Nsg5
S'17.134.127.97'
p665
sg7
I443
sg8
I49259
sg9
g41
sa(dp666
g2
S'17.134.127.97'
p667
sg4
Nsg5
S'192.168.42.32'
p668
sg7
I49256
sg8
I443
sg9
g41
sa(dp669
g2
S'192.168.42.32'
p670
sg4
Nsg5
S'192.168.42.1'
p671
sg7
I192
sg8
I65242
sg9
g10
sa(dp672
g2
S'192.168.42.32'
p673
sg4
Nsg5
S'17.134.127.97'
p674
sg7
I443
sg8
I49256
sg9
g41
sa(dp675
g2
S'17.134.127.97'
p676
sg4
Nsg5
S'192.168.42.32'
p677
sg7
I49258
sg8
I443
sg9
g41
sa(dp678
g2
S'17.134.127.97'
p679
sg4
Nsg5
S'192.168.42.32'
p680
sg7
I49259
sg8
I443
sg9
g41
sa(dp681
g2
S'192.168.42.32'
p682
sg4
Nsg5
S'17.134.127.97'
p683
sg7
I443
sg8
I49258
sg9
g41
sa(dp684
g2
S'192.168.42.32'
p685
sg4
Nsg5
S'17.134.127.97'
p686
sg7
I443
sg8
I49259
sg9
g41
sa(dp687
g2
S'192.168.42.32'
p688
sg4
Nsg5
S'17.134.127.97'
p689
sg7
I443
sg8
I49258
sg9
g41
sa(dp690
g2
S'192.168.42.32'
p691
sg4
Nsg5
S'17.134.127.97'
p692
sg7
I443
sg8
I49259
sg9
g41
sa(dp693
g2
S'17.134.127.97'
p694
sg4
Nsg5
S'192.168.42.32'
p695
sg7
I49258
sg8
I443
sg9
g41
sa(dp696
g2
S'17.134.127.97'
p697
sg4
Nsg5
S'192.168.42.32'
p698
sg7
I49258
sg8
I443
sg9
g41
sa(dp699
g2
S'17.134.127.97'
p700
sg4
Nsg5
S'192.168.42.32'
p701
sg7
I49258
sg8
I443
sg9
g41
sa(dp702
g2
S'17.134.127.97'
p703
sg4
Nsg5
S'192.168.42.32'
p704
sg7
I49259
sg8
I443
sg9
g41
sa(dp705
g2
S'17.134.127.97'
p706
sg4
Nsg5
S'192.168.42.32'
p707
sg7
I49259
sg8
I443
sg9
g41
sa(dp708
g2
S'17.134.127.97'
p709
sg4
Nsg5
S'192.168.42.32'
p710
sg7
I49259
sg8
I443
sg9
g41
sa(dp711
g2
S'192.168.42.32'
p712
sg4
Nsg5
S'17.134.127.97'
p713
sg7
I443
sg8
I49258
sg9
g41
sa(dp714
g2
S'192.168.42.32'
p715
sg4
Nsg5
S'17.134.127.97'
p716
sg7
I443
sg8
I49258
sg9
g41
sa(dp717
g2
S'192.168.42.32'
p718
sg4
Nsg5
S'17.134.127.97'
p719
sg7
I443
sg8
I49258
sg9
g41
sa(dp720
g2
S'192.168.42.32'
p721
sg4
Nsg5
S'17.134.127.97'
p722
sg7
I443
sg8
I49258
sg9
g41
sa(dp723
g2
S'192.168.42.32'
p724
sg4
Nsg5
S'17.134.127.97'
p725
sg7
I443
sg8
I49259
sg9
g41
sa(dp726
g2
S'192.168.42.32'
p727
sg4
Nsg5
S'17.134.127.97'
p728
sg7
I443
sg8
I49258
sg9
g41
sa(dp729
g2
S'192.168.42.32'
p730
sg4
Nsg5
S'17.134.127.97'
p731
sg7
I443
sg8
I49260
sg9
g41
sa(dp732
g2
S'192.168.42.32'
p733
sg4
Nsg5
S'192.168.42.1'
p734
sg7
I192
sg8
I65242
sg9
g10
sa(dp735
g2
S'192.168.42.32'
p736
sg4
Nsg5
S'17.134.127.97'
p737
sg7
I443
sg8
I49259
sg9
g41
sa(dp738
g2
S'192.168.42.32'
p739
sg4
Nsg5
S'17.134.127.97'
p740
sg7
I443
sg8
I49259
sg9
g41
sa(dp741
g2
S'192.168.42.32'
p742
sg4
Nsg5
S'17.134.127.97'
p743
sg7
I443
sg8
I49259
sg9
g41
sa(dp744
g2
S'17.134.127.97'
p745
sg4
Nsg5
S'192.168.42.32'
p746
sg7
I49258
sg8
I443
sg9
g41
sa(dp747
g2
S'17.134.127.97'
p748
sg4
Nsg5
S'192.168.42.32'
p749
sg7
I49258
sg8
I443
sg9
g41
sa(dp750
g2
S'192.168.42.32'
p751
sg4
Nsg5
S'17.134.127.97'
p752
sg7
I443
sg8
I49259
sg9
g41
sa(dp753
g2
S'192.168.42.32'
p754
sg4
Nsg5
S'17.134.127.97'
p755
sg7
I443
sg8
I49259
sg9
g41
sa(dp756
g2
S'192.168.42.32'
p757
sg4
Nsg5
S'17.134.127.97'
p758
sg7
I443
sg8
I49258
sg9
g41
sa(dp759
g2
S'192.168.42.32'
p760
sg4
Nsg5
S'17.134.127.97'
p761
sg7
I443
sg8
I49258
sg9
g41
sa(dp762
g2
S'17.134.127.97'
p763
sg4
Nsg5
S'192.168.42.32'
p764
sg7
I49258
sg8
I443
sg9
g41
sa(dp765
g2
S'17.134.127.97'
p766
sg4
Nsg5
S'192.168.42.32'
p767
sg7
I49260
sg8
I443
sg9
g41
sa(dp768
g2
S'192.168.42.32'
p769
sg4
Nsg5
S'17.134.127.97'
p770
sg7
I443
sg8
I49258
sg9
g41
sa(dp771
g2
S'192.168.42.32'
p772
sg4
Nsg5
S'17.134.127.97'
p773
sg7
I443
sg8
I49260
sg9
g41
sa(dp774
g2
S'192.168.42.32'
p775
sg4
Nsg5
S'17.134.127.97'
p776
sg7
I443
sg8
I49260
sg9
g41
sa(dp777
g2
S'17.134.127.97'
p778
sg4
Nsg5
S'192.168.42.32'
p779
sg7
I49259
sg8
I443
sg9
g41
sa(dp780
g2
S'17.134.127.97'
p781
sg4
Nsg5
S'192.168.42.32'
p782
sg7
I49259
sg8
I443
sg9
g41
sa(dp783
g2
S'17.134.127.97'
p784
sg4
Nsg5
S'192.168.42.32'
p785
sg7
I49259
sg8
I443
sg9
g41
sa(dp786
g2
S'17.134.127.97'
p787
sg4
Nsg5
S'192.168.42.32'
p788
sg7
I49259
sg8
I443
sg9
g41
sa(dp789
g2
S'17.134.127.97'
p790
sg4
Nsg5
S'192.168.42.32'
p791
sg7
I49258
sg8
I443
sg9
g41
sa(dp792
g2
S'17.134.127.97'
p793
sg4
Nsg5
S'192.168.42.32'
p794
sg7
I49258
sg8
I443
sg9
g41
sa(dp795
g2
S'17.134.127.97'
p796
sg4
Nsg5
S'192.168.42.32'
p797
sg7
I49259
sg8
I443
sg9
g41
sa(dp798
g2
S'17.134.127.97'
p799
sg4
Nsg5
S'192.168.42.32'
p800
sg7
I49259
sg8
I443
sg9
g41
sa(dp801
g2
S'17.134.127.97'
p802
sg4
Nsg5
S'192.168.42.32'
p803
sg7
I49259
sg8
I443
sg9
g41
sa(dp804
g2
S'17.134.127.97'
p805
sg4
Nsg5
S'192.168.42.32'
p806
sg7
I49259
sg8
I443
sg9
g41
sa(dp807
g2
S'17.134.127.97'
p808
sg4
Nsg5
S'192.168.42.32'
p809
sg7
I49259
sg8
I443
sg9
g41
sa(dp810
g2
S'17.134.127.97'
p811
sg4
Nsg5
S'192.168.42.32'
p812
sg7
I49259
sg8
I443
sg9
g41
sa(dp813
g2
S'17.134.127.97'
p814
sg4
Nsg5
S'192.168.42.32'
p815
sg7
I49259
sg8
I443
sg9
g41
sa(dp816
g2
S'192.168.42.32'
p817
sg4
Nsg5
S'17.134.127.97'
p818
sg7
I443
sg8
I49259
sg9
g41
sa(dp819
g2
S'192.168.42.32'
p820
sg4
Nsg5
S'17.134.127.97'
p821
sg7
I443
sg8
I49259
sg9
g41
sa(dp822
g2
S'192.168.42.32'
p823
sg4
Nsg5
S'17.134.127.97'
p824
sg7
I443
sg8
I49259
sg9
g41
sa(dp825
g2
S'192.168.42.32'
p826
sg4
Nsg5
S'17.134.127.97'
p827
sg7
I443
sg8
I49259
sg9
g41
sa(dp828
g2
S'192.168.42.32'
p829
sg4
Nsg5
S'17.134.127.97'
p830
sg7
I443
sg8
I49259
sg9
g41
sa(dp831
g2
S'192.168.42.32'
p832
sg4
Nsg5
S'17.134.127.97'
p833
sg7
I443
sg8
I49259
sg9
g41
sa(dp834
g2
S'17.134.127.97'
p835
sg4
Nsg5
S'192.168.42.32'
p836
sg7
I49260
sg8
I443
sg9
g41
sa(dp837
g2
S'17.134.127.97'
p838
sg4
Nsg5
S'192.168.42.32'
p839
sg7
I49260
sg8
I443
sg9
g41
sa(dp840
g2
S'192.168.42.32'
p841
sg4
Nsg5
S'17.134.127.97'
p842
sg7
I443
sg8
I49260
sg9
g41
sa(dp843
g2
S'192.168.42.32'
p844
sg4
Nsg5
S'17.134.127.97'
p845
sg7
I443
sg8
I49260
sg9
g41
sa(dp846
g2
S'192.168.42.32'
p847
sg4
Nsg5
S'17.134.127.97'
p848
sg7
I443
sg8
I49260
sg9
g41
sa(dp849
g2
S'192.168.42.32'
p850
sg4
Nsg5
S'17.134.127.97'
p851
sg7
I443
sg8
I49260
sg9
g41
sa(dp852
g2
S'192.168.42.32'
p853
sg4
Nsg5
S'17.134.127.97'
p854
sg7
I443
sg8
I49260
sg9
g41
sa(dp855
g2
S'192.168.42.32'
p856
sg4
Nsg5
S'17.134.127.97'
p857
sg7
I443
sg8
I49260
sg9
g41
sa(dp858
g2
S'17.134.127.97'
p859
sg4
Nsg5
S'192.168.42.32'
p860
sg7
I49259
sg8
I443
sg9
g41
sa(dp861
g2
S'17.134.127.97'
p862
sg4
Nsg5
S'192.168.42.32'
p863
sg7
I49259
sg8
I443
sg9
g41
sa(dp864
g2
S'192.168.42.32'
p865
sg4
Nsg5
S'224.0.0.251'
p866
sg7
I5353
sg8
I5353
sg9
g10
sa(dp867
g2
S'17.134.127.97'
p868
sg4
Nsg5
S'192.168.42.32'
p869
sg7
I49260
sg8
I443
sg9
g41
sa(dp870
g2
S'17.134.127.97'
p871
sg4
Nsg5
S'192.168.42.32'
p872
sg7
I49260
sg8
I443
sg9
g41
sa(dp873
g2
S'17.134.127.97'
p874
sg4
Nsg5
S'192.168.42.32'
p875
sg7
I49260
sg8
I443
sg9
g41
sa(dp876
g2
S'17.134.127.97'
p877
sg4
Nsg5
S'192.168.42.32'
p878
sg7
I49260
sg8
I443
sg9
g41
sa(dp879
g2
S'17.134.127.97'
p880
sg4
Nsg5
S'192.168.42.32'
p881
sg7
I49260
sg8
I443
sg9
g41
sa(dp882
g2
S'17.134.127.97'
p883
sg4
Nsg5
S'192.168.42.32'
p884
sg7
I49260
sg8
I443
sg9
g41
sa(dp885
g2
S'17.134.127.97'
p886
sg4
Nsg5
S'192.168.42.32'
p887
sg7
I49260
sg8
I443
sg9
g41
sa(dp888
g2
S'192.168.42.32'
p889
sg4
Nsg5
S'17.134.127.97'
p890
sg7
I443
sg8
I49260
sg9
g41
sa(dp891
g2
S'192.168.42.32'
p892
sg4
Nsg5
S'17.134.127.97'
p893
sg7
I443
sg8
I49260
sg9
g41
sa(dp894
g2
S'192.168.42.32'
p895
sg4
Nsg5
S'17.134.127.97'
p896
sg7
I443
sg8
I49260
sg9
g41
sa(dp897
g2
S'192.168.42.32'
p898
sg4
Nsg5
S'17.134.127.97'
p899
sg7
I443
sg8
I49260
sg9
g41
sa(dp900
g2
S'17.134.127.97'
p901
sg4
Nsg5
S'192.168.42.32'
p902
sg7
I49260
sg8
I443
sg9
g41
sa(dp903
g2
S'17.134.127.97'
p904
sg4
Nsg5
S'192.168.42.32'
p905
sg7
I49260
sg8
I443
sg9
g41
sa(dp906
g2
S'192.168.42.32'
p907
sg4
Nsg5
S'192.168.42.1'
p908
sg7
I192
sg8
I65242
sg9
g10
sa(dp909
g2
S'192.168.42.32'
p910
sg4
Nsg5
S'192.168.42.1'
p911
sg7
I192
sg8
I65242
sg9
g10
sa(dp912
g2
S'192.168.42.32'
p913
sg4
Nsg5
S'224.0.0.251'
p914
sg7
I5353
sg8
I5353
sg9
g10
sa(dp915
g2
S'192.168.42.32'
p916
sg4
Nsg5
S'192.168.42.1'
p917
sg7
I192
sg8
I65242
sg9
g10
sa(dp918
g2
S'192.168.42.32'
p919
sg4
Nsg5
S'192.168.42.1'
p920
sg7
I192
sg8
I65242
sg9
g10
sa(dp921
g2
S'0.0.0.0'
p922
sg4
Nsg5
S'255.255.255.255'
p923
sg7
I67
sg8
I68
sg9
g10
sa(dp924
g2
S'192.168.42.1'
p925
sg4
Nsg5
S'192.168.42.14'
p926
sg7
I68
sg8
I67
sg9
g10
sa(dp927
g2
S'192.168.42.32'
p928
sg4
Nsg5
S'192.168.42.1'
p929
sg7
I192
sg8
I65242
sg9
g10
sa(dp930
g2
S'192.168.42.32'
p931
sg4
Nsg5
S'192.168.42.1'
p932
sg7
I192
sg8
I65242
sg9
g10
sa.