(lp0
(dp1
S'src'
p2
S'192.168.42.33'
p3
sS'http'
p4
NsS'dst'
p5
S'216.58.211.106'
p6
sS'dport'
p7
I443
sS'sport'
p8
I43801
sS'type'
p9
S'tcp'
p10
sa(dp11
g2
S'216.58.211.106'
p12
sg4
Nsg5
S'192.168.42.33'
p13
sg7
I43801
sg8
I443
sg9
g10
sa(dp14
g2
S'192.168.42.33'
p15
sg4
Nsg5
S'216.58.211.106'
p16
sg7
I443
sg8
I43801
sg9
g10
sa(dp17
g2
S'192.168.42.33'
p18
sg4
Nsg5
S'216.58.211.106'
p19
sg7
I443
sg8
I43801
sg9
g10
sa(dp20
g2
S'216.58.211.106'
p21
sg4
Nsg5
S'192.168.42.33'
p22
sg7
I43801
sg8
I443
sg9
g10
sa(dp23
g2
S'216.58.211.106'
p24
sg4
Nsg5
S'192.168.42.33'
p25
sg7
I43801
sg8
I443
sg9
g10
sa(dp26
g2
S'192.168.42.33'
p27
sg4
Nsg5
S'216.58.211.106'
p28
sg7
I443
sg8
I43801
sg9
g10
sa(dp29
g2
S'192.168.42.33'
p30
sg4
Nsg5
S'216.58.211.106'
p31
sg7
I443
sg8
I43801
sg9
g10
sa(dp32
g2
S'192.168.42.33'
p33
sg4
Nsg5
S'216.58.211.106'
p34
sg7
I443
sg8
I43801
sg9
g10
sa(dp35
g2
S'192.168.42.33'
p36
sg4
Nsg5
S'216.58.211.106'
p37
sg7
I443
sg8
I43801
sg9
g10
sa(dp38
g2
S'216.58.211.106'
p39
sg4
Nsg5
S'192.168.42.33'
p40
sg7
I43801
sg8
I443
sg9
g10
sa(dp41
g2
S'192.168.42.33'
p42
sg4
Nsg5
S'216.58.211.106'
p43
sg7
I443
sg8
I43801
sg9
g10
sa(dp44
g2
S'216.58.211.106'
p45
sg4
Nsg5
S'192.168.42.33'
p46
sg7
I43801
sg8
I443
sg9
g10
sa(dp47
g2
S'216.58.211.106'
p48
sg4
Nsg5
S'192.168.42.33'
p49
sg7
I43801
sg8
I443
sg9
g10
sa(dp50
g2
S'216.58.211.106'
p51
sg4
Nsg5
S'192.168.42.33'
p52
sg7
I43801
sg8
I443
sg9
g10
sa(dp53
g2
S'192.168.42.33'
p54
sg4
Nsg5
S'216.58.211.106'
p55
sg7
I443
sg8
I43801
sg9
g10
sa(dp56
g2
S'192.168.42.33'
p57
sg4
Nsg5
S'216.58.211.106'
p58
sg7
I443
sg8
I43801
sg9
g10
sa(dp59
g2
S'192.168.42.33'
p60
sg4
Nsg5
S'216.58.211.106'
p61
sg7
I443
sg8
I43801
sg9
g10
sa(dp62
g2
S'216.58.211.106'
p63
sg4
Nsg5
S'192.168.42.33'
p64
sg7
I43801
sg8
I443
sg9
g10
sa(dp65
g2
S'216.58.211.106'
p66
sg4
Nsg5
S'192.168.42.33'
p67
sg7
I43801
sg8
I443
sg9
g10
sa(dp68
g2
S'192.168.42.33'
p69
sg4
Nsg5
S'216.58.211.106'
p70
sg7
I443
sg8
I43801
sg9
g10
sa(dp71
g2
S'192.168.42.33'
p72
sg4
Nsg5
S'216.58.211.106'
p73
sg7
I443
sg8
I43801
sg9
g10
sa(dp74
g2
S'192.168.42.33'
p75
sg4
Nsg5
S'216.58.211.106'
p76
sg7
I443
sg8
I43801
sg9
g10
sa(dp77
g2
S'216.58.211.106'
p78
sg4
Nsg5
S'192.168.42.33'
p79
sg7
I43801
sg8
I443
sg9
g10
sa(dp80
g2
S'192.168.42.33'
p81
sg4
Nsg5
S'216.58.211.106'
p82
sg7
I443
sg8
I43801
sg9
g10
sa(dp83
g2
S'216.58.211.106'
p84
sg4
Nsg5
S'192.168.42.33'
p85
sg7
I43801
sg8
I443
sg9
g10
sa(dp86
g2
S'216.58.211.106'
p87
sg4
Nsg5
S'192.168.42.33'
p88
sg7
I43801
sg8
I443
sg9
g10
sa(dp89
g2
S'192.168.42.33'
p90
sg4
Nsg5
S'216.58.211.106'
p91
sg7
I443
sg8
I43801
sg9
g10
sa(dp92
g2
S'192.168.42.33'
p93
sg4
Nsg5
S'216.58.211.106'
p94
sg7
I443
sg8
I43801
sg9
g10
sa(dp95
g2
S'192.168.42.33'
p96
sg4
Nsg5
S'216.58.211.106'
p97
sg7
I443
sg8
I43801
sg9
g10
sa(dp98
g2
S'192.168.42.33'
p99
sg4
Nsg5
S'216.58.211.106'
p100
sg7
I443
sg8
I43801
sg9
g10
sa(dp101
g2
S'216.58.211.106'
p102
sg4
Nsg5
S'192.168.42.33'
p103
sg7
I43801
sg8
I443
sg9
g10
sa(dp104
g2
S'216.58.211.106'
p105
sg4
Nsg5
S'192.168.42.33'
p106
sg7
I43801
sg8
I443
sg9
g10
sa(dp107
g2
S'192.168.42.33'
p108
sg4
Nsg5
S'216.58.211.106'
p109
sg7
I443
sg8
I43801
sg9
g10
sa(dp110
g2
S'192.168.42.33'
p111
sg4
Nsg5
S'192.168.42.1'
p112
sg7
I7
sg8
I49825
sg9
g10
sa(dp113
g2
S'192.168.42.1'
p114
sg4
Nsg5
S'192.168.42.33'
p115
sg7
I49825
sg8
I7
sg9
g10
sa(dp116
g2
S'192.168.42.33'
p117
sg4
Nsg5
S'8.8.8.8'
p118
sg7
I53
sg8
I53638
sg9
S'udp'
p119
sa(dp120
g2
S'192.168.42.33'
p121
sg4
Nsg5
S'8.8.4.4'
p122
sg7
I53
sg8
I40374
sg9
g119
sa(dp123
g2
S'192.168.42.33'
p124
sg4
Nsg5
S'8.8.8.8'
p125
sg7
I53
sg8
I50427
sg9
g119
sa(dp126
g2
S'192.168.42.33'
p127
sg4
Nsg5
S'8.8.4.4'
p128
sg7
I53
sg8
I55875
sg9
g119
sa(dp129
g2
S'8.8.4.4'
p130
sg4
Nsg5
S'192.168.42.33'
p131
sg7
I40374
sg8
I53
sg9
g119
sa(dp132
g2
S'8.8.8.8'
p133
sg4
Nsg5
S'192.168.42.33'
p134
sg7
I53638
sg8
I53
sg9
g119
sa(dp135
g2
S'8.8.8.8'
p136
sg4
Nsg5
S'192.168.42.33'
p137
sg7
I50427
sg8
I53
sg9
g119
sa(dp138
g2
S'8.8.4.4'
p139
sg4
Nsg5
S'192.168.42.33'
p140
sg7
I55875
sg8
I53
sg9
g119
sa(dp141
g2
S'192.168.42.33'
p142
sg4
Nsg5
S'172.217.17.99'
p143
sg7
I80
sg8
I36630
sg9
g10
sa(dp144
g2
S'172.217.17.99'
p145
sg4
Nsg5
S'192.168.42.33'
p146
sg7
I36630
sg8
I80
sg9
g10
sa(dp147
g2
S'192.168.42.33'
p148
sg4
Nsg5
S'172.217.17.99'
p149
sg7
I80
sg8
I36630
sg9
g10
sa(dp150
g2
S'192.168.42.33'
p151
sg4
I01
sg5
S'172.217.17.99'
p152
sS'host'
p153
S'connectivitycheck.gstatic.com'
p154
sg7
I80
sS'path'
p155
S'/generate_204'
p156
sg8
I36630
sg9
g10
sS'method'
p157
S'GET'
p158
sa(dp159
g2
S'172.217.17.99'
p160
sg4
Nsg5
S'192.168.42.33'
p161
sg7
I36630
sg8
I80
sg9
g10
sa(dp162
g2
S'172.217.17.99'
p163
sg4
Nsg5
S'192.168.42.33'
p164
sg7
I36630
sg8
I80
sg9
g10
sa(dp165
g2
S'172.217.17.99'
p166
sg4
Nsg5
S'192.168.42.33'
p167
sg7
I36630
sg8
I80
sg9
g10
sa(dp168
g2
S'192.168.42.33'
p169
sg4
Nsg5
S'172.217.17.99'
p170
sg7
I80
sg8
I36630
sg9
g10
sa(dp171
g2
S'192.168.42.33'
p172
sg4
Nsg5
S'172.217.17.99'
p173
sg7
I80
sg8
I36630
sg9
g10
sa(dp174
g2
S'172.217.17.99'
p175
sg4
Nsg5
S'192.168.42.33'
p176
sg7
I36630
sg8
I80
sg9
g10
sa(dp177
g2
S'192.168.42.33'
p178
sg4
Nsg5
S'8.8.8.8'
p179
sg7
I53
sg8
I24911
sg9
g119
sa(dp180
g2
S'8.8.8.8'
p181
sg4
Nsg5
S'192.168.42.33'
p182
sg7
I24911
sg8
I53
sg9
g119
sa(dp183
g2
S'192.168.42.33'
p184
sg4
Nsg5
S'13.107.3.128'
p185
sg7
I443
sg8
I36302
sg9
g10
sa(dp186
g2
S'13.107.3.128'
p187
sg4
Nsg5
S'192.168.42.33'
p188
sg7
I36302
sg8
I443
sg9
g10
sa(dp189
g2
S'192.168.42.33'
p190
sg4
Nsg5
S'13.107.3.128'
p191
sg7
I443
sg8
I36302
sg9
g10
sa(dp192
g2
S'192.168.42.33'
p193
sg4
Nsg5
S'216.58.208.36'
p194
sg7
I443
sg8
I36286
sg9
g10
sa(dp195
g2
S'216.58.208.36'
p196
sg4
Nsg5
S'192.168.42.33'
p197
sg7
I36286
sg8
I443
sg9
g10
sa(dp198
g2
S'192.168.42.33'
p199
sg4
Nsg5
S'216.58.208.36'
p200
sg7
I443
sg8
I42621
sg9
g119
sa(dp201
g2
S'192.168.42.33'
p202
sg4
Nsg5
S'216.58.208.36'
p203
sg7
I443
sg8
I42621
sg9
g119
sa(dp204
g2
S'192.168.42.33'
p205
sg4
Nsg5
S'216.58.208.36'
p206
sg7
I443
sg8
I36286
sg9
g10
sa(dp207
g2
S'192.168.42.33'
p208
sg4
Nsg5
S'216.58.208.36'
p209
sg7
I443
sg8
I36286
sg9
g10
sa(dp210
g2
S'216.58.208.36'
p211
sg4
Nsg5
S'192.168.42.33'
p212
sg7
I36286
sg8
I443
sg9
g10
sa(dp213
g2
S'216.58.208.36'
p214
sg4
Nsg5
S'192.168.42.33'
p215
sg7
I36286
sg8
I443
sg9
g10
sa(dp216
g2
S'216.58.208.36'
p217
sg4
Nsg5
S'192.168.42.33'
p218
sg7
I36286
sg8
I443
sg9
g10
sa(dp219
g2
S'216.58.208.36'
p220
sg4
Nsg5
S'192.168.42.33'
p221
sg7
I36286
sg8
I443
sg9
g10
sa(dp222
g2
S'216.58.208.36'
p223
sg4
Nsg5
S'192.168.42.33'
p224
sg7
I42621
sg8
I443
sg9
g119
sa(dp225
g2
S'216.58.208.36'
p226
sg4
Nsg5
S'192.168.42.33'
p227
sg7
I42621
sg8
I443
sg9
g119
sa(dp228
g2
S'216.58.208.36'
p229
sg4
Nsg5
S'192.168.42.33'
p230
sg7
I42621
sg8
I443
sg9
g119
sa(dp231
g2
S'216.58.208.36'
p232
sg4
Nsg5
S'192.168.42.33'
p233
sg7
I36286
sg8
I443
sg9
g10
sa(dp234
g2
S'192.168.42.33'
p235
sg4
Nsg5
S'216.58.208.36'
p236
sg7
I443
sg8
I42621
sg9
g119
sa(dp237
g2
S'192.168.42.33'
p238
sg4
Nsg5
S'216.58.208.36'
p239
sg7
I443
sg8
I36286
sg9
g10
sa(dp240
g2
S'192.168.42.33'
p241
sg4
Nsg5
S'216.58.208.36'
p242
sg7
I443
sg8
I36286
sg9
g10
sa(dp243
g2
S'192.168.42.33'
p244
sg4
Nsg5
S'216.58.208.36'
p245
sg7
I443
sg8
I36286
sg9
g10
sa(dp246
g2
S'192.168.42.33'
p247
sg4
Nsg5
S'216.58.208.36'
p248
sg7
I443
sg8
I36286
sg9
g10
sa(dp249
g2
S'192.168.42.33'
p250
sg4
Nsg5
S'216.58.208.36'
p251
sg7
I443
sg8
I36286
sg9
g10
sa(dp252
g2
S'192.168.42.33'
p253
sg4
Nsg5
S'216.58.208.36'
p254
sg7
I443
sg8
I42621
sg9
g119
sa(dp255
g2
S'192.168.42.33'
p256
sg4
Nsg5
S'216.58.208.36'
p257
sg7
I443
sg8
I42621
sg9
g119
sa(dp258
g2
S'216.58.208.36'
p259
sg4
Nsg5
S'192.168.42.33'
p260
sg7
I36286
sg8
I443
sg9
g10
sa(dp261
g2
S'216.58.208.36'
p262
sg4
Nsg5
S'192.168.42.33'
p263
sg7
I36286
sg8
I443
sg9
g10
sa(dp264
g2
S'216.58.208.36'
p265
sg4
Nsg5
S'192.168.42.33'
p266
sg7
I36286
sg8
I443
sg9
g10
sa(dp267
g2
S'192.168.42.33'
p268
sg4
Nsg5
S'216.58.208.36'
p269
sg7
I443
sg8
I36286
sg9
g10
sa(dp270
g2
S'192.168.42.33'
p271
sg4
Nsg5
S'216.58.208.36'
p272
sg7
I443
sg8
I36286
sg9
g10
sa(dp273
g2
S'192.168.42.33'
p274
sg4
Nsg5
S'216.58.208.36'
p275
sg7
I443
sg8
I36286
sg9
g10
sa(dp276
g2
S'216.58.208.36'
p277
sg4
Nsg5
S'192.168.42.33'
p278
sg7
I42621
sg8
I443
sg9
g119
sa(dp279
g2
S'216.58.208.36'
p280
sg4
Nsg5
S'192.168.42.33'
p281
sg7
I42621
sg8
I443
sg9
g119
sa(dp282
g2
S'216.58.208.36'
p283
sg4
Nsg5
S'192.168.42.33'
p284
sg7
I42621
sg8
I443
sg9
g119
sa(dp285
g2
S'192.168.42.33'
p286
sg4
Nsg5
S'216.58.208.36'
p287
sg7
I443
sg8
I36286
sg9
g10
sa(dp288
g2
S'192.168.42.33'
p289
sg4
Nsg5
S'216.58.208.36'
p290
sg7
I443
sg8
I36286
sg9
g10
sa(dp291
g2
S'192.168.42.33'
p292
sg4
Nsg5
S'216.58.208.36'
p293
sg7
I443
sg8
I36286
sg9
g10
sa(dp294
g2
S'192.168.42.33'
p295
sg4
Nsg5
S'216.58.208.36'
p296
sg7
I443
sg8
I36286
sg9
g10
sa(dp297
g2
S'192.168.42.33'
p298
sg4
Nsg5
S'216.58.208.36'
p299
sg7
I443
sg8
I42621
sg9
g119
sa(dp300
g2
S'216.58.208.36'
p301
sg4
Nsg5
S'192.168.42.33'
p302
sg7
I42621
sg8
I443
sg9
g119
sa(dp303
g2
S'216.58.208.36'
p304
sg4
Nsg5
S'192.168.42.33'
p305
sg7
I42621
sg8
I443
sg9
g119
sa(dp306
g2
S'216.58.208.36'
p307
sg4
Nsg5
S'192.168.42.33'
p308
sg7
I42621
sg8
I443
sg9
g119
sa(dp309
g2
S'216.58.208.36'
p310
sg4
Nsg5
S'192.168.42.33'
p311
sg7
I36286
sg8
I443
sg9
g10
sa(dp312
g2
S'216.58.208.36'
p313
sg4
Nsg5
S'192.168.42.33'
p314
sg7
I36286
sg8
I443
sg9
g10
sa(dp315
g2
S'216.58.208.36'
p316
sg4
Nsg5
S'192.168.42.33'
p317
sg7
I36286
sg8
I443
sg9
g10
sa(dp318
g2
S'216.58.208.36'
p319
sg4
Nsg5
S'192.168.42.33'
p320
sg7
I42621
sg8
I443
sg9
g119
sa(dp321
g2
S'216.58.208.36'
p322
sg4
Nsg5
S'192.168.42.33'
p323
sg7
I42621
sg8
I443
sg9
g119
sa(dp324
g2
S'192.168.42.33'
p325
sg4
Nsg5
S'216.58.208.36'
p326
sg7
I443
sg8
I42621
sg9
g119
sa(dp327
g2
S'192.168.42.33'
p328
sg4
Nsg5
S'216.58.208.36'
p329
sg7
I443
sg8
I42621
sg9
g119
sa(dp330
g2
S'192.168.42.33'
p331
sg4
Nsg5
S'216.58.208.36'
p332
sg7
I443
sg8
I42621
sg9
g119
sa(dp333
g2
S'192.168.42.33'
p334
sg4
Nsg5
S'13.107.3.128'
p335
sg7
I443
sg8
I36302
sg9
g10
sa(dp336
g2
S'192.168.42.33'
p337
sg4
Nsg5
S'216.58.208.36'
p338
sg7
I443
sg8
I36286
sg9
g10
sa(dp339
g2
S'13.107.3.128'
p340
sg4
Nsg5
S'192.168.42.33'
p341
sg7
I36302
sg8
I443
sg9
g10
sa(dp342
g2
S'13.107.3.128'
p343
sg4
Nsg5
S'192.168.42.33'
p344
sg7
I36302
sg8
I443
sg9
g10
sa(dp345
g2
S'13.107.3.128'
p346
sg4
Nsg5
S'192.168.42.33'
p347
sg7
I36302
sg8
I443
sg9
g10
sa(dp348
g2
S'13.107.3.128'
p349
sg4
Nsg5
S'192.168.42.33'
p350
sg7
I36302
sg8
I443
sg9
g10
sa(dp351
g2
S'216.58.208.36'
p352
sg4
Nsg5
S'192.168.42.33'
p353
sg7
I42621
sg8
I443
sg9
g119
sa(dp354
g2
S'192.168.42.33'
p355
sg4
Nsg5
S'13.107.3.128'
p356
sg7
I443
sg8
I36302
sg9
g10
sa(dp357
g2
S'192.168.42.33'
p358
sg4
Nsg5
S'13.107.3.128'
p359
sg7
I443
sg8
I36302
sg9
g10
sa(dp360
g2
S'192.168.42.33'
p361
sg4
Nsg5
S'13.107.3.128'
p362
sg7
I443
sg8
I36302
sg9
g10
sa(dp363
g2
S'192.168.42.33'
p364
sg4
Nsg5
S'13.107.3.128'
p365
sg7
I443
sg8
I36302
sg9
g10
sa(dp366
g2
S'13.107.3.128'
p367
sg4
Nsg5
S'192.168.42.33'
p368
sg7
I36302
sg8
I443
sg9
g10
sa(dp369
g2
S'13.107.3.128'
p370
sg4
Nsg5
S'192.168.42.33'
p371
sg7
I36302
sg8
I443
sg9
g10
sa(dp372
g2
S'192.168.42.33'
p373
sg4
Nsg5
S'13.107.3.128'
p374
sg7
I443
sg8
I36302
sg9
g10
sa(dp375
g2
S'192.168.42.33'
p376
sg4
Nsg5
S'13.107.3.128'
p377
sg7
I443
sg8
I36302
sg9
g10
sa(dp378
g2
S'13.107.3.128'
p379
sg4
Nsg5
S'192.168.42.33'
p380
sg7
I36302
sg8
I443
sg9
g10
sa(dp381
g2
S'13.107.3.128'
p382
sg4
Nsg5
S'192.168.42.33'
p383
sg7
I36302
sg8
I443
sg9
g10
sa(dp384
g2
S'192.168.42.33'
p385
sg4
Nsg5
S'13.107.3.128'
p386
sg7
I443
sg8
I36302
sg9
g10
sa(dp387
g2
S'192.168.42.33'
p388
sg4
Nsg5
S'224.0.0.251'
p389
sg7
I5353
sg8
I5353
sg9
g119
sa(dp390
g2
S'192.168.42.33'
p391
sg4
Nsg5
S'224.0.0.251'
p392
sg7
I5353
sg8
I5353
sg9
g119
sa(dp393
g2
S'192.168.42.33'
p394
sg4
Nsg5
S'224.0.0.251'
p395
sg7
I5353
sg8
I5353
sg9
g119
sa(dp396
g2
S'192.168.42.33'
p397
sg4
Nsg5
S'8.8.8.8'
p398
sg7
I53
sg8
I10503
sg9
g119
sa(dp399
g2
S'192.168.42.33'
p400
sg4
Nsg5
S'8.8.8.8'
p401
sg7
I53
sg8
I13072
sg9
g119
sa(dp402
g2
S'192.168.42.33'
p403
sg4
Nsg5
S'8.8.8.8'
p404
sg7
I53
sg8
I18928
sg9
g119
sa(dp405
g2
S'8.8.8.8'
p406
sg4
Nsg5
S'192.168.42.33'
p407
sg7
I13072
sg8
I53
sg9
g119
sa(dp408
g2
S'8.8.8.8'
p409
sg4
Nsg5
S'192.168.42.33'
p410
sg7
I18928
sg8
I53
sg9
g119
sa(dp411
g2
S'8.8.8.8'
p412
sg4
Nsg5
S'192.168.42.33'
p413
sg7
I10503
sg8
I53
sg9
g119
sa(dp414
g2
S'192.168.42.33'
p415
sg4
Nsg5
S'8.8.8.8'
p416
sg7
I53
sg8
I20495
sg9
g119
sa(dp417
g2
S'192.168.42.33'
p418
sg4
Nsg5
S'8.8.8.8'
p419
sg7
I53
sg8
I28041
sg9
g119
sa(dp420
g2
S'192.168.42.33'
p421
sg4
Nsg5
S'8.8.8.8'
p422
sg7
I53
sg8
I13056
sg9
g119
sa(dp423
g2
S'8.8.8.8'
p424
sg4
Nsg5
S'192.168.42.33'
p425
sg7
I20495
sg8
I53
sg9
g119
sa(dp426
g2
S'8.8.8.8'
p427
sg4
Nsg5
S'192.168.42.33'
p428
sg7
I28041
sg8
I53
sg9
g119
sa(dp429
g2
S'8.8.8.8'
p430
sg4
Nsg5
S'192.168.42.33'
p431
sg7
I13056
sg8
I53
sg9
g119
sa(dp432
g2
S'192.168.42.33'
p433
sg4
Nsg5
S'224.0.0.251'
p434
sg7
I5353
sg8
I5353
sg9
g119
sa(dp435
g2
S'192.168.42.33'
p436
sg4
Nsg5
S'8.8.8.8'
p437
sg7
I53
sg8
I17520
sg9
g119
sa(dp438
g2
S'8.8.8.8'
p439
sg4
Nsg5
S'192.168.42.33'
p440
sg7
I17520
sg8
I53
sg9
g119
sa(dp441
g2
S'192.168.42.33'
p442
sg4
Nsg5
S'91.198.174.192'
p443
sg7
I80
sg8
I35138
sg9
g10
sa(dp444
g2
S'91.198.174.192'
p445
sg4
Nsg5
S'192.168.42.33'
p446
sg7
I35138
sg8
I80
sg9
g10
sa(dp447
g2
S'192.168.42.33'
p448
sg4
Nsg5
S'91.198.174.192'
p449
sg7
I80
sg8
I35138
sg9
g10
sa(dp450
g2
S'192.168.42.33'
p451
sg4
I01
sg5
S'91.198.174.192'
p452
sg153
S'www.wikipedia.org'
p453
sg7
I80
sg155
S'/'
p454
sg8
I35138
sg9
g10
sg157
S'GET'
p455
sa(dp456
g2
S'91.198.174.192'
p457
sg4
Nsg5
S'192.168.42.33'
p458
sg7
I35138
sg8
I80
sg9
g10
sa(dp459
g2
S'91.198.174.192'
p460
sg4
Nsg5
S'192.168.42.33'
p461
sg7
I35138
sg8
I80
sg9
g10
sa(dp462
g2
S'91.198.174.192'
p463
sg4
Nsg5
S'192.168.42.33'
p464
sg7
I35138
sg8
I80
sg9
g10
sa(dp465
g2
S'91.198.174.192'
p466
sg4
Nsg5
S'192.168.42.33'
p467
sg7
I35138
sg8
I80
sg9
g10
sa(dp468
g2
S'192.168.42.33'
p469
sg4
Nsg5
S'91.198.174.192'
p470
sg7
I80
sg8
I35138
sg9
g10
sa(dp471
g2
S'192.168.42.33'
p472
sg4
Nsg5
S'91.198.174.192'
p473
sg7
I80
sg8
I35138
sg9
g10
sa(dp474
g2
S'192.168.42.33'
p475
sg4
Nsg5
S'91.198.174.192'
p476
sg7
I80
sg8
I35138
sg9
g10
sa(dp477
g2
S'91.198.174.192'
p478
sg4
Nsg5
S'192.168.42.33'
p479
sg7
I35138
sg8
I80
sg9
g10
sa(dp480
g2
S'192.168.42.33'
p481
sg4
Nsg5
S'8.8.4.4'
p482
sg7
I53
sg8
I4993
sg9
g119
sa(dp483
g2
S'8.8.4.4'
p484
sg4
Nsg5
S'192.168.42.33'
p485
sg7
I4993
sg8
I53
sg9
g119
sa(dp486
g2
S'192.168.42.33'
p487
sg4
Nsg5
S'107.20.139.157'
p488
sg7
I443
sg8
I53177
sg9
g10
sa(dp489
g2
S'107.20.139.157'
p490
sg4
Nsg5
S'192.168.42.33'
p491
sg7
I53177
sg8
I443
sg9
g10
sa(dp492
g2
S'192.168.42.33'
p493
sg4
Nsg5
S'107.20.139.157'
p494
sg7
I443
sg8
I53177
sg9
g10
sa(dp495
g2
S'192.168.42.33'
p496
sg4
Nsg5
S'107.20.139.157'
p497
sg7
I443
sg8
I53177
sg9
g10
sa(dp498
g2
S'107.20.139.157'
p499
sg4
Nsg5
S'192.168.42.33'
p500
sg7
I53177
sg8
I443
sg9
g10
sa(dp501
g2
S'107.20.139.157'
p502
sg4
Nsg5
S'192.168.42.33'
p503
sg7
I53177
sg8
I443
sg9
g10
sa(dp504
g2
S'107.20.139.157'
p505
sg4
Nsg5
S'192.168.42.33'
p506
sg7
I53177
sg8
I443
sg9
g10
sa(dp507
g2
S'107.20.139.157'
p508
sg4
Nsg5
S'192.168.42.33'
p509
sg7
I53177
sg8
I443
sg9
g10
sa(dp510
g2
S'107.20.139.157'
p511
sg4
Nsg5
S'192.168.42.33'
p512
sg7
I53177
sg8
I443
sg9
g10
sa(dp513
g2
S'107.20.139.157'
p514
sg4
Nsg5
S'192.168.42.33'
p515
sg7
I53177
sg8
I443
sg9
g10
sa(dp516
g2
S'192.168.42.33'
p517
sg4
Nsg5
S'107.20.139.157'
p518
sg7
I443
sg8
I53177
sg9
g10
sa(dp519
g2
S'192.168.42.33'
p520
sg4
Nsg5
S'107.20.139.157'
p521
sg7
I443
sg8
I53177
sg9
g10
sa(dp522
g2
S'192.168.42.33'
p523
sg4
Nsg5
S'107.20.139.157'
p524
sg7
I443
sg8
I53177
sg9
g10
sa(dp525
g2
S'192.168.42.33'
p526
sg4
Nsg5
S'107.20.139.157'
p527
sg7
I443
sg8
I53177
sg9
g10
sa(dp528
g2
S'192.168.42.33'
p529
sg4
Nsg5
S'107.20.139.157'
p530
sg7
I443
sg8
I53177
sg9
g10
sa(dp531
g2
S'192.168.42.33'
p532
sg4
Nsg5
S'107.20.139.157'
p533
sg7
I443
sg8
I53177
sg9
g10
sa(dp534
g2
S'107.20.139.157'
p535
sg4
Nsg5
S'192.168.42.33'
p536
sg7
I53177
sg8
I443
sg9
g10
sa(dp537
g2
S'192.168.42.33'
p538
sg4
Nsg5
S'107.20.139.157'
p539
sg7
I443
sg8
I53177
sg9
g10
sa(dp540
g2
S'192.168.42.33'
p541
sg4
Nsg5
S'107.20.139.157'
p542
sg7
I443
sg8
I53177
sg9
g10
sa(dp543
g2
S'107.20.139.157'
p544
sg4
Nsg5
S'192.168.42.33'
p545
sg7
I53177
sg8
I443
sg9
g10
sa(dp546
g2
S'192.168.42.33'
p547
sg4
Nsg5
S'107.20.139.157'
p548
sg7
I443
sg8
I53177
sg9
g10
sa(dp549
g2
S'192.168.42.33'
p550
sg4
Nsg5
S'52.16.226.187'
p551
sg7
I5223
sg8
I45798
sg9
g10
sa(dp552
g2
S'52.16.226.187'
p553
sg4
Nsg5
S'192.168.42.33'
p554
sg7
I45798
sg8
I5223
sg9
g10
sa(dp555
g2
S'192.168.42.33'
p556
sg4
Nsg5
S'52.16.226.187'
p557
sg7
I5223
sg8
I45798
sg9
g10
sa(dp558
g2
S'192.168.42.33'
p559
sg4
Nsg5
S'52.16.226.187'
p560
sg7
I5223
sg8
I45798
sg9
g10
sa(dp561
g2
S'52.16.226.187'
p562
sg4
Nsg5
S'192.168.42.33'
p563
sg7
I45798
sg8
I5223
sg9
g10
sa(dp564
g2
S'52.16.226.187'
p565
sg4
Nsg5
S'192.168.42.33'
p566
sg7
I45798
sg8
I5223
sg9
g10
sa(dp567
g2
S'52.16.226.187'
p568
sg4
Nsg5
S'192.168.42.33'
p569
sg7
I45798
sg8
I5223
sg9
g10
sa(dp570
g2
S'192.168.42.33'
p571
sg4
Nsg5
S'52.16.226.187'
p572
sg7
I5223
sg8
I45798
sg9
g10
sa(dp573
g2
S'192.168.42.33'
p574
sg4
Nsg5
S'52.16.226.187'
p575
sg7
I5223
sg8
I45798
sg9
g10
sa(dp576
g2
S'192.168.42.33'
p577
sg4
Nsg5
S'52.16.226.187'
p578
sg7
I5223
sg8
I45798
sg9
g10
sa(dp579
g2
S'52.16.226.187'
p580
sg4
Nsg5
S'192.168.42.33'
p581
sg7
I45798
sg8
I5223
sg9
g10
sa(dp582
g2
S'52.16.226.187'
p583
sg4
Nsg5
S'192.168.42.33'
p584
sg7
I45798
sg8
I5223
sg9
g10
sa(dp585
g2
S'192.168.42.33'
p586
sg4
Nsg5
S'52.16.226.187'
p587
sg7
I5223
sg8
I45798
sg9
g10
sa(dp588
g2
S'192.168.42.33'
p589
sg4
Nsg5
S'52.16.226.187'
p590
sg7
I5223
sg8
I45798
sg9
g10
sa(dp591
g2
S'192.168.42.33'
p592
sg4
Nsg5
S'52.16.226.187'
p593
sg7
I5223
sg8
I45798
sg9
g10
sa(dp594
g2
S'52.16.226.187'
p595
sg4
Nsg5
S'192.168.42.33'
p596
sg7
I45798
sg8
I5223
sg9
g10
sa(dp597
g2
S'192.168.42.33'
p598
sg4
Nsg5
S'52.16.226.187'
p599
sg7
I5223
sg8
I45798
sg9
g10
sa(dp600
g2
S'192.168.42.33'
p601
sg4
Nsg5
S'52.16.226.187'
p602
sg7
I5223
sg8
I45798
sg9
g10
sa(dp603
g2
S'52.16.226.187'
p604
sg4
Nsg5
S'192.168.42.33'
p605
sg7
I45798
sg8
I5223
sg9
g10
sa(dp606
g2
S'192.168.42.33'
p607
sg4
Nsg5
S'52.16.226.187'
p608
sg7
I5223
sg8
I45798
sg9
g10
sa(dp609
g2
S'192.168.42.33'
p610
sg4
Nsg5
S'8.8.8.8'
p611
sg7
I53
sg8
I5814
sg9
g119
sa(dp612
g2
S'8.8.8.8'
p613
sg4
Nsg5
S'192.168.42.33'
p614
sg7
I5814
sg8
I53
sg9
g119
sa(dp615
g2
S'192.168.42.33'
p616
sg4
Nsg5
S'52.31.54.81'
p617
sg7
I80
sg8
I41572
sg9
g10
sa(dp618
g2
S'52.31.54.81'
p619
sg4
Nsg5
S'192.168.42.33'
p620
sg7
I41572
sg8
I80
sg9
g10
sa(dp621
g2
S'192.168.42.33'
p622
sg4
Nsg5
S'52.31.54.81'
p623
sg7
I80
sg8
I41572
sg9
g10
sa(dp624
g2
S'192.168.42.33'
p625
sg4
Nsg5
S'52.31.54.81'
p626
sg7
I80
sg8
I41572
sg9
g10
sa(dp627
g2
S'52.31.54.81'
p628
sg4
Nsg5
S'192.168.42.33'
p629
sg7
I41572
sg8
I80
sg9
g10
sa(dp630
g2
S'52.31.54.81'
p631
sg4
Nsg5
S'192.168.42.33'
p632
sg7
I41572
sg8
I80
sg9
g10
sa(dp633
g2
S'192.168.42.33'
p634
sg4
Nsg5
S'52.31.54.81'
p635
sg7
I80
sg8
I41572
sg9
g10
sa(dp636
g2
S'192.168.42.33'
p637
sg4
Nsg5
S'52.31.54.81'
p638
sg7
I80
sg8
I41572
sg9
g10
sa(dp639
g2
S'52.31.54.81'
p640
sg4
Nsg5
S'192.168.42.33'
p641
sg7
I41572
sg8
I80
sg9
g10
sa(dp642
g2
S'192.168.42.33'
p643
sg4
Nsg5
S'52.31.54.81'
p644
sg7
I80
sg8
I41572
sg9
g10
sa(dp645
g2
S'192.168.42.33'
p646
sg4
Nsg5
S'52.31.54.81'
p647
sg7
I80
sg8
I41572
sg9
g10
sa(dp648
g2
S'52.31.54.81'
p649
sg4
Nsg5
S'192.168.42.33'
p650
sg7
I41572
sg8
I80
sg9
g10
sa(dp651
g2
S'192.168.42.33'
p652
sg4
Nsg5
S'52.31.54.81'
p653
sg7
I80
sg8
I41572
sg9
g10
sa(dp654
g2
S'192.168.42.33'
p655
sg4
Nsg5
S'52.31.54.81'
p656
sg7
I80
sg8
I41572
sg9
g10
sa(dp657
g2
S'52.31.54.81'
p658
sg4
Nsg5
S'192.168.42.33'
p659
sg7
I41572
sg8
I80
sg9
g10
sa(dp660
g2
S'52.31.54.81'
p661
sg4
Nsg5
S'192.168.42.33'
p662
sg7
I41572
sg8
I80
sg9
g10
sa(dp663
g2
S'52.31.54.81'
p664
sg4
Nsg5
S'192.168.42.33'
p665
sg7
I41572
sg8
I80
sg9
g10
sa(dp666
g2
S'192.168.42.33'
p667
sg4
Nsg5
S'52.31.54.81'
p668
sg7
I80
sg8
I41572
sg9
g10
sa(dp669
g2
S'192.168.42.33'
p670
sg4
Nsg5
S'52.31.54.81'
p671
sg7
I80
sg8
I43606
sg9
g10
sa(dp672
g2
S'52.31.54.81'
p673
sg4
Nsg5
S'192.168.42.33'
p674
sg7
I43606
sg8
I80
sg9
g10
sa(dp675
g2
S'192.168.42.33'
p676
sg4
Nsg5
S'52.31.54.81'
p677
sg7
I80
sg8
I43606
sg9
g10
sa(dp678
g2
S'192.168.42.33'
p679
sg4
Nsg5
S'52.31.54.81'
p680
sg7
I80
sg8
I43606
sg9
g10
sa(dp681
g2
S'52.31.54.81'
p682
sg4
Nsg5
S'192.168.42.33'
p683
sg7
I43606
sg8
I80
sg9
g10
sa(dp684
g2
S'52.31.54.81'
p685
sg4
Nsg5
S'192.168.42.33'
p686
sg7
I43606
sg8
I80
sg9
g10
sa(dp687
g2
S'192.168.42.33'
p688
sg4
Nsg5
S'52.31.54.81'
p689
sg7
I80
sg8
I43606
sg9
g10
sa(dp690
g2
S'192.168.42.33'
p691
sg4
Nsg5
S'52.31.54.81'
p692
sg7
I80
sg8
I43606
sg9
g10
sa(dp693
g2
S'52.31.54.81'
p694
sg4
Nsg5
S'192.168.42.33'
p695
sg7
I43606
sg8
I80
sg9
g10
sa(dp696
g2
S'52.31.54.81'
p697
sg4
Nsg5
S'192.168.42.33'
p698
sg7
I43606
sg8
I80
sg9
g10
sa(dp699
g2
S'192.168.42.33'
p700
sg4
Nsg5
S'52.31.54.81'
p701
sg7
I80
sg8
I43606
sg9
g10
sa(dp702
g2
S'192.168.42.33'
p703
sg4
Nsg5
S'52.31.54.81'
p704
sg7
I80
sg8
I43606
sg9
g10
sa(dp705
g2
S'192.168.42.33'
p706
sg4
Nsg5
S'52.31.54.81'
p707
sg7
I80
sg8
I43606
sg9
g10
sa(dp708
g2
S'192.168.42.33'
p709
sg4
Nsg5
S'52.31.54.81'
p710
sg7
I80
sg8
I43606
sg9
g10
sa(dp711
g2
S'52.31.54.81'
p712
sg4
Nsg5
S'192.168.42.33'
p713
sg7
I43606
sg8
I80
sg9
g10
sa(dp714
g2
S'52.31.54.81'
p715
sg4
Nsg5
S'192.168.42.33'
p716
sg7
I43606
sg8
I80
sg9
g10
sa(dp717
g2
S'192.168.42.33'
p718
sg4
Nsg5
S'52.31.54.81'
p719
sg7
I80
sg8
I43606
sg9
g10
sa(dp720
g2
S'52.31.54.81'
p721
sg4
Nsg5
S'192.168.42.33'
p722
sg7
I43606
sg8
I80
sg9
g10
sa(dp723
g2
S'192.168.42.33'
p724
sg4
Nsg5
S'52.31.54.81'
p725
sg7
I80
sg8
I43606
sg9
g10
sa(dp726
g2
S'192.168.42.33'
p727
sg4
Nsg5
S'52.31.54.81'
p728
sg7
I80
sg8
I50618
sg9
g10
sa(dp729
g2
S'52.31.54.81'
p730
sg4
Nsg5
S'192.168.42.33'
p731
sg7
I50618
sg8
I80
sg9
g10
sa(dp732
g2
S'192.168.42.33'
p733
sg4
Nsg5
S'52.31.54.81'
p734
sg7
I80
sg8
I50618
sg9
g10
sa(dp735
g2
S'192.168.42.33'
p736
sg4
Nsg5
S'52.31.54.81'
p737
sg7
I80
sg8
I50618
sg9
g10
sa(dp738
g2
S'52.31.54.81'
p739
sg4
Nsg5
S'192.168.42.33'
p740
sg7
I50618
sg8
I80
sg9
g10
sa(dp741
g2
S'52.31.54.81'
p742
sg4
Nsg5
S'192.168.42.33'
p743
sg7
I50618
sg8
I80
sg9
g10
sa(dp744
g2
S'192.168.42.33'
p745
sg4
Nsg5
S'52.31.54.81'
p746
sg7
I80
sg8
I50618
sg9
g10
sa(dp747
g2
S'192.168.42.33'
p748
sg4
Nsg5
S'52.31.54.81'
p749
sg7
I80
sg8
I50618
sg9
g10
sa(dp750
g2
S'52.31.54.81'
p751
sg4
Nsg5
S'192.168.42.33'
p752
sg7
I50618
sg8
I80
sg9
g10
sa(dp753
g2
S'52.31.54.81'
p754
sg4
Nsg5
S'192.168.42.33'
p755
sg7
I50618
sg8
I80
sg9
g10
sa(dp756
g2
S'192.168.42.33'
p757
sg4
Nsg5
S'52.31.54.81'
p758
sg7
I80
sg8
I50618
sg9
g10
sa(dp759
g2
S'192.168.42.33'
p760
sg4
Nsg5
S'52.31.54.81'
p761
sg7
I80
sg8
I50618
sg9
g10
sa(dp762
g2
S'192.168.42.33'
p763
sg4
Nsg5
S'52.31.54.81'
p764
sg7
I80
sg8
I50618
sg9
g10
sa(dp765
g2
S'52.31.54.81'
p766
sg4
Nsg5
S'192.168.42.33'
p767
sg7
I50618
sg8
I80
sg9
g10
sa(dp768
g2
S'52.31.54.81'
p769
sg4
Nsg5
S'192.168.42.33'
p770
sg7
I50618
sg8
I80
sg9
g10
sa(dp771
g2
S'192.168.42.33'
p772
sg4
Nsg5
S'52.31.54.81'
p773
sg7
I80
sg8
I50618
sg9
g10
sa(dp774
g2
S'192.168.42.33'
p775
sg4
Nsg5
S'52.31.54.81'
p776
sg7
I80
sg8
I43078
sg9
g10
sa(dp777
g2
S'52.31.54.81'
p778
sg4
Nsg5
S'192.168.42.33'
p779
sg7
I43078
sg8
I80
sg9
g10
sa(dp780
g2
S'192.168.42.33'
p781
sg4
Nsg5
S'52.31.54.81'
p782
sg7
I80
sg8
I43078
sg9
g10
sa(dp783
g2
S'192.168.42.33'
p784
sg4
Nsg5
S'52.31.54.81'
p785
sg7
I80
sg8
I43078
sg9
g10
sa(dp786
g2
S'52.31.54.81'
p787
sg4
Nsg5
S'192.168.42.33'
p788
sg7
I43078
sg8
I80
sg9
g10
sa(dp789
g2
S'52.31.54.81'
p790
sg4
Nsg5
S'192.168.42.33'
p791
sg7
I43078
sg8
I80
sg9
g10
sa(dp792
g2
S'192.168.42.33'
p793
sg4
Nsg5
S'52.31.54.81'
p794
sg7
I80
sg8
I43078
sg9
g10
sa(dp795
g2
S'192.168.42.33'
p796
sg4
Nsg5
S'52.31.54.81'
p797
sg7
I80
sg8
I43078
sg9
g10
sa(dp798
g2
S'52.31.54.81'
p799
sg4
Nsg5
S'192.168.42.33'
p800
sg7
I43078
sg8
I80
sg9
g10
sa(dp801
g2
S'192.168.42.33'
p802
sg4
Nsg5
S'52.31.54.81'
p803
sg7
I80
sg8
I43078
sg9
g10
sa(dp804
g2
S'192.168.42.33'
p805
sg4
Nsg5
S'52.31.54.81'
p806
sg7
I80
sg8
I43078
sg9
g10
sa(dp807
g2
S'192.168.42.33'
p808
sg4
Nsg5
S'52.31.54.81'
p809
sg7
I80
sg8
I43078
sg9
g10
sa(dp810
g2
S'192.168.42.33'
p811
sg4
Nsg5
S'52.31.54.81'
p812
sg7
I80
sg8
I43078
sg9
g10
sa(dp813
g2
S'52.31.54.81'
p814
sg4
Nsg5
S'192.168.42.33'
p815
sg7
I43078
sg8
I80
sg9
g10
sa(dp816
g2
S'52.31.54.81'
p817
sg4
Nsg5
S'192.168.42.33'
p818
sg7
I43078
sg8
I80
sg9
g10
sa(dp819
g2
S'192.168.42.33'
p820
sg4
Nsg5
S'52.31.54.81'
p821
sg7
I80
sg8
I43078
sg9
g10
sa(dp822
g2
S'192.168.42.33'
p823
sg4
Nsg5
S'52.31.54.81'
p824
sg7
I80
sg8
I44513
sg9
g10
sa(dp825
g2
S'52.31.54.81'
p826
sg4
Nsg5
S'192.168.42.33'
p827
sg7
I44513
sg8
I80
sg9
g10
sa(dp828
g2
S'192.168.42.33'
p829
sg4
Nsg5
S'52.31.54.81'
p830
sg7
I80
sg8
I44513
sg9
g10
sa(dp831
g2
S'192.168.42.33'
p832
sg4
Nsg5
S'52.31.54.81'
p833
sg7
I80
sg8
I44513
sg9
g10
sa(dp834
g2
S'52.31.54.81'
p835
sg4
Nsg5
S'192.168.42.33'
p836
sg7
I44513
sg8
I80
sg9
g10
sa(dp837
g2
S'52.31.54.81'
p838
sg4
Nsg5
S'192.168.42.33'
p839
sg7
I44513
sg8
I80
sg9
g10
sa(dp840
g2
S'192.168.42.33'
p841
sg4
Nsg5
S'52.31.54.81'
p842
sg7
I80
sg8
I44513
sg9
g10
sa(dp843
g2
S'192.168.42.33'
p844
sg4
Nsg5
S'52.31.54.81'
p845
sg7
I80
sg8
I44513
sg9
g10
sa(dp846
g2
S'52.31.54.81'
p847
sg4
Nsg5
S'192.168.42.33'
p848
sg7
I44513
sg8
I80
sg9
g10
sa(dp849
g2
S'192.168.42.33'
p850
sg4
Nsg5
S'52.31.54.81'
p851
sg7
I80
sg8
I44513
sg9
g10
sa(dp852
g2
S'192.168.42.33'
p853
sg4
Nsg5
S'52.31.54.81'
p854
sg7
I80
sg8
I44513
sg9
g10
sa(dp855
g2
S'52.31.54.81'
p856
sg4
Nsg5
S'192.168.42.33'
p857
sg7
I44513
sg8
I80
sg9
g10
sa(dp858
g2
S'192.168.42.33'
p859
sg4
Nsg5
S'52.31.54.81'
p860
sg7
I80
sg8
I44513
sg9
g10
sa(dp861
g2
S'52.31.54.81'
p862
sg4
Nsg5
S'192.168.42.33'
p863
sg7
I44513
sg8
I80
sg9
g10
sa(dp864
g2
S'192.168.42.33'
p865
sg4
Nsg5
S'52.31.54.81'
p866
sg7
I80
sg8
I44513
sg9
g10
sa(dp867
g2
S'52.31.54.81'
p868
sg4
Nsg5
S'192.168.42.33'
p869
sg7
I44513
sg8
I80
sg9
g10
sa(dp870
g2
S'52.31.54.81'
p871
sg4
Nsg5
S'192.168.42.33'
p872
sg7
I44513
sg8
I80
sg9
g10
sa(dp873
g2
S'192.168.42.33'
p874
sg4
Nsg5
S'52.31.54.81'
p875
sg7
I80
sg8
I44513
sg9
g10
sa(dp876
g2
S'192.168.42.33'
p877
sg4
Nsg5
S'52.31.54.81'
p878
sg7
I80
sg8
I56509
sg9
g10
sa(dp879
g2
S'52.31.54.81'
p880
sg4
Nsg5
S'192.168.42.33'
p881
sg7
I56509
sg8
I80
sg9
g10
sa(dp882
g2
S'192.168.42.33'
p883
sg4
Nsg5
S'52.31.54.81'
p884
sg7
I80
sg8
I56509
sg9
g10
sa(dp885
g2
S'192.168.42.33'
p886
sg4
Nsg5
S'52.31.54.81'
p887
sg7
I80
sg8
I56509
sg9
g10
sa(dp888
g2
S'52.31.54.81'
p889
sg4
Nsg5
S'192.168.42.33'
p890
sg7
I56509
sg8
I80
sg9
g10
sa(dp891
g2
S'52.31.54.81'
p892
sg4
Nsg5
S'192.168.42.33'
p893
sg7
I56509
sg8
I80
sg9
g10
sa(dp894
g2
S'192.168.42.33'
p895
sg4
Nsg5
S'52.31.54.81'
p896
sg7
I80
sg8
I56509
sg9
g10
sa(dp897
g2
S'192.168.42.33'
p898
sg4
Nsg5
S'52.31.54.81'
p899
sg7
I80
sg8
I56509
sg9
g10
sa(dp900
g2
S'52.31.54.81'
p901
sg4
Nsg5
S'192.168.42.33'
p902
sg7
I56509
sg8
I80
sg9
g10
sa(dp903
g2
S'192.168.42.33'
p904
sg4
Nsg5
S'52.31.54.81'
p905
sg7
I80
sg8
I56509
sg9
g10
sa(dp906
g2
S'192.168.42.33'
p907
sg4
Nsg5
S'52.31.54.81'
p908
sg7
I80
sg8
I56509
sg9
g10
sa(dp909
g2
S'192.168.42.33'
p910
sg4
Nsg5
S'52.31.54.81'
p911
sg7
I80
sg8
I56509
sg9
g10
sa(dp912
g2
S'192.168.42.33'
p913
sg4
Nsg5
S'52.31.54.81'
p914
sg7
I80
sg8
I56509
sg9
g10
sa(dp915
g2
S'52.31.54.81'
p916
sg4
Nsg5
S'192.168.42.33'
p917
sg7
I56509
sg8
I80
sg9
g10
sa(dp918
g2
S'52.31.54.81'
p919
sg4
Nsg5
S'192.168.42.33'
p920
sg7
I56509
sg8
I80
sg9
g10
sa(dp921
g2
S'192.168.42.33'
p922
sg4
Nsg5
S'52.31.54.81'
p923
sg7
I80
sg8
I41572
sg9
g10
sa(dp924
g2
S'192.168.42.33'
p925
sg4
Nsg5
S'52.31.54.81'
p926
sg7
I80
sg8
I41572
sg9
g10
sa(dp927
g2
S'192.168.42.33'
p928
sg4
Nsg5
S'52.31.54.81'
p929
sg7
I80
sg8
I56509
sg9
g10
sa(dp930
g2
S'52.31.54.81'
p931
sg4
Nsg5
S'192.168.42.33'
p932
sg7
I41572
sg8
I80
sg9
g10
sa(dp933
g2
S'52.31.54.81'
p934
sg4
Nsg5
S'192.168.42.33'
p935
sg7
I41572
sg8
I80
sg9
g10
sa(dp936
g2
S'52.31.54.81'
p937
sg4
Nsg5
S'192.168.42.33'
p938
sg7
I41572
sg8
I80
sg9
g10
sa(dp939
g2
S'192.168.42.33'
p940
sg4
Nsg5
S'52.31.54.81'
p941
sg7
I80
sg8
I41572
sg9
g10
sa(dp942
g2
S'192.168.42.33'
p943
sg4
Nsg5
S'52.31.54.81'
p944
sg7
I80
sg8
I41572
sg9
g10
sa(dp945
g2
S'192.168.42.33'
p946
sg4
Nsg5
S'52.31.54.81'
p947
sg7
I80
sg8
I41572
sg9
g10
sa(dp948
g2
S'192.168.42.33'
p949
sg4
Nsg5
S'52.31.54.81'
p950
sg7
I80
sg8
I35866
sg9
g10
sa(dp951
g2
S'52.31.54.81'
p952
sg4
Nsg5
S'192.168.42.33'
p953
sg7
I35866
sg8
I80
sg9
g10
sa(dp954
g2
S'192.168.42.33'
p955
sg4
Nsg5
S'52.31.54.81'
p956
sg7
I80
sg8
I35866
sg9
g10
sa(dp957
g2
S'192.168.42.33'
p958
sg4
Nsg5
S'52.31.54.81'
p959
sg7
I80
sg8
I35866
sg9
g10
sa(dp960
g2
S'52.31.54.81'
p961
sg4
Nsg5
S'192.168.42.33'
p962
sg7
I35866
sg8
I80
sg9
g10
sa(dp963
g2
S'52.31.54.81'
p964
sg4
Nsg5
S'192.168.42.33'
p965
sg7
I35866
sg8
I80
sg9
g10
sa(dp966
g2
S'192.168.42.33'
p967
sg4
Nsg5
S'52.31.54.81'
p968
sg7
I80
sg8
I35866
sg9
g10
sa(dp969
g2
S'192.168.42.33'
p970
sg4
Nsg5
S'52.31.54.81'
p971
sg7
I80
sg8
I35866
sg9
g10
sa(dp972
g2
S'52.31.54.81'
p973
sg4
Nsg5
S'192.168.42.33'
p974
sg7
I35866
sg8
I80
sg9
g10
sa(dp975
g2
S'192.168.42.33'
p976
sg4
Nsg5
S'52.31.54.81'
p977
sg7
I80
sg8
I35866
sg9
g10
sa(dp978
g2
S'192.168.42.33'
p979
sg4
Nsg5
S'52.31.54.81'
p980
sg7
I80
sg8
I35866
sg9
g10
sa(dp981
g2
S'192.168.42.33'
p982
sg4
Nsg5
S'52.31.54.81'
p983
sg7
I80
sg8
I35866
sg9
g10
sa(dp984
g2
S'52.31.54.81'
p985
sg4
Nsg5
S'192.168.42.33'
p986
sg7
I35866
sg8
I80
sg9
g10
sa(dp987
g2
S'192.168.42.33'
p988
sg4
Nsg5
S'52.31.54.81'
p989
sg7
I80
sg8
I35866
sg9
g10
sa(dp990
g2
S'52.31.54.81'
p991
sg4
Nsg5
S'192.168.42.33'
p992
sg7
I35866
sg8
I80
sg9
g10
sa(dp993
g2
S'192.168.42.33'
p994
sg4
Nsg5
S'52.31.54.81'
p995
sg7
I80
sg8
I43606
sg9
g10
sa(dp996
g2
S'192.168.42.33'
p997
sg4
Nsg5
S'52.31.54.81'
p998
sg7
I80
sg8
I43606
sg9
g10
sa(dp999
g2
S'192.168.42.33'
p1000
sg4
Nsg5
S'52.31.54.81'
p1001
sg7
I80
sg8
I35866
sg9
g10
sa(dp1002
g2
S'52.31.54.81'
p1003
sg4
Nsg5
S'192.168.42.33'
p1004
sg7
I43606
sg8
I80
sg9
g10
sa(dp1005
g2
S'52.31.54.81'
p1006
sg4
Nsg5
S'192.168.42.33'
p1007
sg7
I43606
sg8
I80
sg9
g10
sa(dp1008
g2
S'52.31.54.81'
p1009
sg4
Nsg5
S'192.168.42.33'
p1010
sg7
I43606
sg8
I80
sg9
g10
sa(dp1011
g2
S'52.31.54.81'
p1012
sg4
Nsg5
S'192.168.42.33'
p1013
sg7
I43606
sg8
I80
sg9
g10
sa(dp1014
g2
S'192.168.42.33'
p1015
sg4
Nsg5
S'52.31.54.81'
p1016
sg7
I80
sg8
I43606
sg9
g10
sa(dp1017
g2
S'192.168.42.33'
p1018
sg4
Nsg5
S'52.31.54.81'
p1019
sg7
I80
sg8
I43606
sg9
g10
sa(dp1020
g2
S'192.168.42.33'
p1021
sg4
Nsg5
S'52.31.54.81'
p1022
sg7
I80
sg8
I43606
sg9
g10
sa(dp1023
g2
S'192.168.42.33'
p1024
sg4
Nsg5
S'52.31.54.81'
p1025
sg7
I80
sg8
I43922
sg9
g10
sa(dp1026
g2
S'52.31.54.81'
p1027
sg4
Nsg5
S'192.168.42.33'
p1028
sg7
I43922
sg8
I80
sg9
g10
sa(dp1029
g2
S'192.168.42.33'
p1030
sg4
Nsg5
S'52.31.54.81'
p1031
sg7
I80
sg8
I43922
sg9
g10
sa(dp1032
g2
S'192.168.42.33'
p1033
sg4
Nsg5
S'52.31.54.81'
p1034
sg7
I80
sg8
I43922
sg9
g10
sa(dp1035
g2
S'52.31.54.81'
p1036
sg4
Nsg5
S'192.168.42.33'
p1037
sg7
I43922
sg8
I80
sg9
g10
sa(dp1038
g2
S'52.31.54.81'
p1039
sg4
Nsg5
S'192.168.42.33'
p1040
sg7
I43922
sg8
I80
sg9
g10
sa(dp1041
g2
S'192.168.42.33'
p1042
sg4
Nsg5
S'52.31.54.81'
p1043
sg7
I80
sg8
I43922
sg9
g10
sa(dp1044
g2
S'192.168.42.33'
p1045
sg4
Nsg5
S'52.31.54.81'
p1046
sg7
I80
sg8
I43922
sg9
g10
sa(dp1047
g2
S'52.31.54.81'
p1048
sg4
Nsg5
S'192.168.42.33'
p1049
sg7
I43922
sg8
I80
sg9
g10
sa(dp1050
g2
S'192.168.42.33'
p1051
sg4
Nsg5
S'52.31.54.81'
p1052
sg7
I80
sg8
I43922
sg9
g10
sa(dp1053
g2
S'192.168.42.33'
p1054
sg4
Nsg5
S'52.31.54.81'
p1055
sg7
I80
sg8
I43922
sg9
g10
sa(dp1056
g2
S'192.168.42.33'
p1057
sg4
Nsg5
S'52.31.54.81'
p1058
sg7
I80
sg8
I43922
sg9
g10
sa(dp1059
g2
S'192.168.42.33'
p1060
sg4
Nsg5
S'52.31.54.81'
p1061
sg7
I80
sg8
I43922
sg9
g10
sa(dp1062
g2
S'52.31.54.81'
p1063
sg4
Nsg5
S'192.168.42.33'
p1064
sg7
I43922
sg8
I80
sg9
g10
sa(dp1065
g2
S'52.31.54.81'
p1066
sg4
Nsg5
S'192.168.42.33'
p1067
sg7
I43922
sg8
I80
sg9
g10
sa(dp1068
g2
S'192.168.42.33'
p1069
sg4
Nsg5
S'52.31.54.81'
p1070
sg7
I80
sg8
I50618
sg9
g10
sa(dp1071
g2
S'192.168.42.33'
p1072
sg4
Nsg5
S'52.31.54.81'
p1073
sg7
I80
sg8
I50618
sg9
g10
sa(dp1074
g2
S'192.168.42.33'
p1075
sg4
Nsg5
S'52.31.54.81'
p1076
sg7
I80
sg8
I43922
sg9
g10
sa(dp1077
g2
S'52.31.54.81'
p1078
sg4
Nsg5
S'192.168.42.33'
p1079
sg7
I50618
sg8
I80
sg9
g10
sa(dp1080
g2
S'52.31.54.81'
p1081
sg4
Nsg5
S'192.168.42.33'
p1082
sg7
I50618
sg8
I80
sg9
g10
sa(dp1083
g2
S'52.31.54.81'
p1084
sg4
Nsg5
S'192.168.42.33'
p1085
sg7
I50618
sg8
I80
sg9
g10
sa(dp1086
g2
S'192.168.42.33'
p1087
sg4
Nsg5
S'52.31.54.81'
p1088
sg7
I80
sg8
I50618
sg9
g10
sa(dp1089
g2
S'192.168.42.33'
p1090
sg4
Nsg5
S'52.31.54.81'
p1091
sg7
I80
sg8
I50618
sg9
g10
sa(dp1092
g2
S'192.168.42.33'
p1093
sg4
Nsg5
S'52.31.54.81'
p1094
sg7
I80
sg8
I50618
sg9
g10
sa(dp1095
g2
S'192.168.42.33'
p1096
sg4
Nsg5
S'52.31.54.81'
p1097
sg7
I80
sg8
I34556
sg9
g10
sa(dp1098
g2
S'52.31.54.81'
p1099
sg4
Nsg5
S'192.168.42.33'
p1100
sg7
I34556
sg8
I80
sg9
g10
sa(dp1101
g2
S'192.168.42.33'
p1102
sg4
Nsg5
S'52.31.54.81'
p1103
sg7
I80
sg8
I34556
sg9
g10
sa(dp1104
g2
S'192.168.42.33'
p1105
sg4
Nsg5
S'52.31.54.81'
p1106
sg7
I80
sg8
I34556
sg9
g10
sa(dp1107
g2
S'52.31.54.81'
p1108
sg4
Nsg5
S'192.168.42.33'
p1109
sg7
I34556
sg8
I80
sg9
g10
sa(dp1110
g2
S'52.31.54.81'
p1111
sg4
Nsg5
S'192.168.42.33'
p1112
sg7
I34556
sg8
I80
sg9
g10
sa(dp1113
g2
S'192.168.42.33'
p1114
sg4
Nsg5
S'52.31.54.81'
p1115
sg7
I80
sg8
I34556
sg9
g10
sa(dp1116
g2
S'192.168.42.33'
p1117
sg4
Nsg5
S'52.31.54.81'
p1118
sg7
I80
sg8
I34556
sg9
g10
sa(dp1119
g2
S'52.31.54.81'
p1120
sg4
Nsg5
S'192.168.42.33'
p1121
sg7
I34556
sg8
I80
sg9
g10
sa(dp1122
g2
S'192.168.42.33'
p1123
sg4
Nsg5
S'52.31.54.81'
p1124
sg7
I80
sg8
I34556
sg9
g10
sa(dp1125
g2
S'192.168.42.33'
p1126
sg4
Nsg5
S'52.31.54.81'
p1127
sg7
I80
sg8
I34556
sg9
g10
sa(dp1128
g2
S'192.168.42.33'
p1129
sg4
Nsg5
S'52.31.54.81'
p1130
sg7
I80
sg8
I34556
sg9
g10
sa(dp1131
g2
S'192.168.42.33'
p1132
sg4
Nsg5
S'52.31.54.81'
p1133
sg7
I80
sg8
I34556
sg9
g10
sa(dp1134
g2
S'52.31.54.81'
p1135
sg4
Nsg5
S'192.168.42.33'
p1136
sg7
I34556
sg8
I80
sg9
g10
sa(dp1137
g2
S'52.31.54.81'
p1138
sg4
Nsg5
S'192.168.42.33'
p1139
sg7
I34556
sg8
I80
sg9
g10
sa(dp1140
g2
S'192.168.42.33'
p1141
sg4
Nsg5
S'52.31.54.81'
p1142
sg7
I80
sg8
I43078
sg9
g10
sa(dp1143
g2
S'192.168.42.33'
p1144
sg4
Nsg5
S'52.31.54.81'
p1145
sg7
I80
sg8
I43078
sg9
g10
sa(dp1146
g2
S'192.168.42.33'
p1147
sg4
Nsg5
S'224.0.0.251'
p1148
sg7
I5353
sg8
I5353
sg9
g119
sa(dp1149
g2
S'192.168.42.33'
p1150
sg4
Nsg5
S'52.31.54.81'
p1151
sg7
I80
sg8
I34556
sg9
g10
sa(dp1152
g2
S'52.31.54.81'
p1153
sg4
Nsg5
S'192.168.42.33'
p1154
sg7
I43078
sg8
I80
sg9
g10
sa(dp1155
g2
S'52.31.54.81'
p1156
sg4
Nsg5
S'192.168.42.33'
p1157
sg7
I43078
sg8
I80
sg9
g10
sa(dp1158
g2
S'52.31.54.81'
p1159
sg4
Nsg5
S'192.168.42.33'
p1160
sg7
I43078
sg8
I80
sg9
g10
sa(dp1161
g2
S'192.168.42.33'
p1162
sg4
Nsg5
S'52.31.54.81'
p1163
sg7
I80
sg8
I43078
sg9
g10
sa(dp1164
g2
S'192.168.42.33'
p1165
sg4
Nsg5
S'52.31.54.81'
p1166
sg7
I80
sg8
I43078
sg9
g10
sa(dp1167
g2
S'192.168.42.33'
p1168
sg4
Nsg5
S'52.31.54.81'
p1169
sg7
I80
sg8
I43078
sg9
g10
sa(dp1170
g2
S'192.168.42.33'
p1171
sg4
Nsg5
S'52.31.54.81'
p1172
sg7
I80
sg8
I37297
sg9
g10
sa(dp1173
g2
S'52.31.54.81'
p1174
sg4
Nsg5
S'192.168.42.33'
p1175
sg7
I37297
sg8
I80
sg9
g10
sa(dp1176
g2
S'192.168.42.33'
p1177
sg4
Nsg5
S'52.31.54.81'
p1178
sg7
I80
sg8
I37297
sg9
g10
sa(dp1179
g2
S'192.168.42.33'
p1180
sg4
Nsg5
S'52.31.54.81'
p1181
sg7
I80
sg8
I37297
sg9
g10
sa(dp1182
g2
S'52.31.54.81'
p1183
sg4
Nsg5
S'192.168.42.33'
p1184
sg7
I37297
sg8
I80
sg9
g10
sa(dp1185
g2
S'52.31.54.81'
p1186
sg4
Nsg5
S'192.168.42.33'
p1187
sg7
I37297
sg8
I80
sg9
g10
sa(dp1188
g2
S'192.168.42.33'
p1189
sg4
Nsg5
S'52.31.54.81'
p1190
sg7
I80
sg8
I37297
sg9
g10
sa(dp1191
g2
S'192.168.42.33'
p1192
sg4
Nsg5
S'52.31.54.81'
p1193
sg7
I80
sg8
I37297
sg9
g10
sa(dp1194
g2
S'52.31.54.81'
p1195
sg4
Nsg5
S'192.168.42.33'
p1196
sg7
I37297
sg8
I80
sg9
g10
sa(dp1197
g2
S'192.168.42.33'
p1198
sg4
Nsg5
S'52.31.54.81'
p1199
sg7
I80
sg8
I37297
sg9
g10
sa(dp1200
g2
S'192.168.42.33'
p1201
sg4
Nsg5
S'52.31.54.81'
p1202
sg7
I80
sg8
I37297
sg9
g10
sa(dp1203
g2
S'192.168.42.33'
p1204
sg4
Nsg5
S'52.31.54.81'
p1205
sg7
I80
sg8
I37297
sg9
g10
sa(dp1206
g2
S'192.168.42.33'
p1207
sg4
Nsg5
S'52.31.54.81'
p1208
sg7
I80
sg8
I37297
sg9
g10
sa(dp1209
g2
S'52.31.54.81'
p1210
sg4
Nsg5
S'192.168.42.33'
p1211
sg7
I37297
sg8
I80
sg9
g10
sa(dp1212
g2
S'52.31.54.81'
p1213
sg4
Nsg5
S'192.168.42.33'
p1214
sg7
I37297
sg8
I80
sg9
g10
sa(dp1215
g2
S'192.168.42.33'
p1216
sg4
Nsg5
S'52.31.54.81'
p1217
sg7
I80
sg8
I44513
sg9
g10
sa(dp1218
g2
S'192.168.42.33'
p1219
sg4
Nsg5
S'52.31.54.81'
p1220
sg7
I80
sg8
I44513
sg9
g10
sa(dp1221
g2
S'192.168.42.33'
p1222
sg4
Nsg5
S'52.31.54.81'
p1223
sg7
I80
sg8
I37297
sg9
g10
sa(dp1224
g2
S'52.31.54.81'
p1225
sg4
Nsg5
S'192.168.42.33'
p1226
sg7
I44513
sg8
I80
sg9
g10
sa(dp1227
g2
S'52.31.54.81'
p1228
sg4
Nsg5
S'192.168.42.33'
p1229
sg7
I44513
sg8
I80
sg9
g10
sa(dp1230
g2
S'52.31.54.81'
p1231
sg4
Nsg5
S'192.168.42.33'
p1232
sg7
I44513
sg8
I80
sg9
g10
sa(dp1233
g2
S'192.168.42.33'
p1234
sg4
Nsg5
S'52.31.54.81'
p1235
sg7
I80
sg8
I44513
sg9
g10
sa(dp1236
g2
S'192.168.42.33'
p1237
sg4
Nsg5
S'52.31.54.81'
p1238
sg7
I80
sg8
I44513
sg9
g10
sa(dp1239
g2
S'192.168.42.33'
p1240
sg4
Nsg5
S'52.31.54.81'
p1241
sg7
I80
sg8
I44513
sg9
g10
sa(dp1242
g2
S'52.210.4.61'
p1243
sg4
Nsg5
S'192.168.42.33'
p1244
sg7
I35199
sg8
I80
sg9
g10
sa(dp1245
g2
S'192.168.42.33'
p1246
sg4
Nsg5
S'52.210.4.61'
p1247
sg7
I80
sg8
I35199
sg9
g10
sa(dp1248
g2
S'192.168.42.33'
p1249
sg4
Nsg5
S'52.31.54.81'
p1250
sg7
I80
sg8
I44976
sg9
g10
sa(dp1251
g2
S'52.31.54.81'
p1252
sg4
Nsg5
S'192.168.42.33'
p1253
sg7
I44976
sg8
I80
sg9
g10
sa(dp1254
g2
S'192.168.42.33'
p1255
sg4
Nsg5
S'52.31.54.81'
p1256
sg7
I80
sg8
I44976
sg9
g10
sa(dp1257
g2
S'192.168.42.33'
p1258
sg4
Nsg5
S'52.31.54.81'
p1259
sg7
I80
sg8
I44976
sg9
g10
sa(dp1260
g2
S'52.31.54.81'
p1261
sg4
Nsg5
S'192.168.42.33'
p1262
sg7
I44976
sg8
I80
sg9
g10
sa(dp1263
g2
S'52.31.54.81'
p1264
sg4
Nsg5
S'192.168.42.33'
p1265
sg7
I44976
sg8
I80
sg9
g10
sa(dp1266
g2
S'192.168.42.33'
p1267
sg4
Nsg5
S'52.31.54.81'
p1268
sg7
I80
sg8
I44976
sg9
g10
sa(dp1269
g2
S'192.168.42.33'
p1270
sg4
Nsg5
S'52.31.54.81'
p1271
sg7
I80
sg8
I44976
sg9
g10
sa(dp1272
g2
S'52.31.54.81'
p1273
sg4
Nsg5
S'192.168.42.33'
p1274
sg7
I44976
sg8
I80
sg9
g10
sa(dp1275
g2
S'192.168.42.33'
p1276
sg4
Nsg5
S'52.31.54.81'
p1277
sg7
I80
sg8
I44976
sg9
g10
sa(dp1278
g2
S'192.168.42.33'
p1279
sg4
Nsg5
S'52.31.54.81'
p1280
sg7
I80
sg8
I44976
sg9
g10
sa(dp1281
g2
S'192.168.42.33'
p1282
sg4
Nsg5
S'52.31.54.81'
p1283
sg7
I80
sg8
I44976
sg9
g10
sa(dp1284
g2
S'192.168.42.33'
p1285
sg4
Nsg5
S'52.31.54.81'
p1286
sg7
I80
sg8
I44976
sg9
g10
sa(dp1287
g2
S'52.31.54.81'
p1288
sg4
Nsg5
S'192.168.42.33'
p1289
sg7
I44976
sg8
I80
sg9
g10
sa(dp1290
g2
S'52.31.54.81'
p1291
sg4
Nsg5
S'192.168.42.33'
p1292
sg7
I44976
sg8
I80
sg9
g10
sa(dp1293
g2
S'192.168.42.33'
p1294
sg4
Nsg5
S'52.31.54.81'
p1295
sg7
I80
sg8
I56509
sg9
g10
sa(dp1296
g2
S'52.31.54.81'
p1297
sg4
Nsg5
S'192.168.42.33'
p1298
sg7
I56509
sg8
I80
sg9
g10
sa(dp1299
g2
S'52.31.54.81'
p1300
sg4
Nsg5
S'192.168.42.33'
p1301
sg7
I56509
sg8
I80
sg9
g10
sa(dp1302
g2
S'192.168.42.33'
p1303
sg4
Nsg5
S'52.31.54.81'
p1304
sg7
I80
sg8
I56509
sg9
g10
sa(dp1305
g2
S'192.168.42.33'
p1306
sg4
Nsg5
S'52.31.54.81'
p1307
sg7
I80
sg8
I56509
sg9
g10
sa(dp1308
g2
S'52.31.54.81'
p1309
sg4
Nsg5
S'192.168.42.33'
p1310
sg7
I44976
sg8
I80
sg9
g10
sa(dp1311
g2
S'192.168.42.33'
p1312
sg4
Nsg5
S'52.31.54.81'
p1313
sg7
I80
sg8
I44976
sg9
g10
sa(dp1314
g2
S'192.168.42.33'
p1315
sg4
Nsg5
S'52.31.54.81'
p1316
sg7
I80
sg8
I60243
sg9
g10
sa(dp1317
g2
S'52.31.54.81'
p1318
sg4
Nsg5
S'192.168.42.33'
p1319
sg7
I60243
sg8
I80
sg9
g10
sa(dp1320
g2
S'192.168.42.33'
p1321
sg4
Nsg5
S'52.31.54.81'
p1322
sg7
I80
sg8
I32921
sg9
g10
sa(dp1323
g2
S'192.168.42.33'
p1324
sg4
Nsg5
S'52.31.54.81'
p1325
sg7
I80
sg8
I58088
sg9
g10
sa(dp1326
g2
S'192.168.42.33'
p1327
sg4
Nsg5
S'52.31.54.81'
p1328
sg7
I80
sg8
I48882
sg9
g10
sa(dp1329
g2
S'192.168.42.33'
p1330
sg4
Nsg5
S'52.31.54.81'
p1331
sg7
I80
sg8
I45743
sg9
g10
sa(dp1332
g2
S'192.168.42.33'
p1333
sg4
Nsg5
S'52.31.54.81'
p1334
sg7
I80
sg8
I60243
sg9
g10
sa(dp1335
g2
S'192.168.42.33'
p1336
sg4
Nsg5
S'52.31.54.81'
p1337
sg7
I80
sg8
I60243
sg9
g10
sa(dp1338
g2
S'52.31.54.81'
p1339
sg4
Nsg5
S'192.168.42.33'
p1340
sg7
I32921
sg8
I80
sg9
g10
sa(dp1341
g2
S'52.31.54.81'
p1342
sg4
Nsg5
S'192.168.42.33'
p1343
sg7
I58088
sg8
I80
sg9
g10
sa(dp1344
g2
S'52.31.54.81'
p1345
sg4
Nsg5
S'192.168.42.33'
p1346
sg7
I45743
sg8
I80
sg9
g10
sa(dp1347
g2
S'52.31.54.81'
p1348
sg4
Nsg5
S'192.168.42.33'
p1349
sg7
I48882
sg8
I80
sg9
g10
sa(dp1350
g2
S'52.31.54.81'
p1351
sg4
Nsg5
S'192.168.42.33'
p1352
sg7
I60243
sg8
I80
sg9
g10
sa(dp1353
g2
S'52.31.54.81'
p1354
sg4
Nsg5
S'192.168.42.33'
p1355
sg7
I60243
sg8
I80
sg9
g10
sa(dp1356
g2
S'192.168.42.33'
p1357
sg4
Nsg5
S'52.31.54.81'
p1358
sg7
I80
sg8
I32921
sg9
g10
sa(dp1359
g2
S'192.168.42.33'
p1360
sg4
Nsg5
S'52.31.54.81'
p1361
sg7
I80
sg8
I58088
sg9
g10
sa(dp1362
g2
S'192.168.42.33'
p1363
sg4
Nsg5
S'52.31.54.81'
p1364
sg7
I80
sg8
I45743
sg9
g10
sa(dp1365
g2
S'192.168.42.33'
p1366
sg4
Nsg5
S'52.31.54.81'
p1367
sg7
I80
sg8
I48882
sg9
g10
sa(dp1368
g2
S'192.168.42.33'
p1369
sg4
Nsg5
S'52.31.54.81'
p1370
sg7
I80
sg8
I32921
sg9
g10
sa(dp1371
g2
S'192.168.42.33'
p1372
sg4
Nsg5
S'52.31.54.81'
p1373
sg7
I80
sg8
I48882
sg9
g10
sa(dp1374
g2
S'192.168.42.33'
p1375
sg4
Nsg5
S'52.31.54.81'
p1376
sg7
I80
sg8
I45743
sg9
g10
sa(dp1377
g2
S'192.168.42.33'
p1378
sg4
Nsg5
S'52.31.54.81'
p1379
sg7
I80
sg8
I58088
sg9
g10
sa(dp1380
g2
S'192.168.42.33'
p1381
sg4
Nsg5
S'52.31.54.81'
p1382
sg7
I80
sg8
I60243
sg9
g10
sa(dp1383
g2
S'52.31.54.81'
p1384
sg4
Nsg5
S'192.168.42.33'
p1385
sg7
I32921
sg8
I80
sg9
g10
sa(dp1386
g2
S'52.31.54.81'
p1387
sg4
Nsg5
S'192.168.42.33'
p1388
sg7
I32921
sg8
I80
sg9
g10
sa(dp1389
g2
S'52.31.54.81'
p1390
sg4
Nsg5
S'192.168.42.33'
p1391
sg7
I45743
sg8
I80
sg9
g10
sa(dp1392
g2
S'52.31.54.81'
p1393
sg4
Nsg5
S'192.168.42.33'
p1394
sg7
I48882
sg8
I80
sg9
g10
sa(dp1395
g2
S'52.31.54.81'
p1396
sg4
Nsg5
S'192.168.42.33'
p1397
sg7
I45743
sg8
I80
sg9
g10
sa(dp1398
g2
S'52.31.54.81'
p1399
sg4
Nsg5
S'192.168.42.33'
p1400
sg7
I48882
sg8
I80
sg9
g10
sa(dp1401
g2
S'52.31.54.81'
p1402
sg4
Nsg5
S'192.168.42.33'
p1403
sg7
I58088
sg8
I80
sg9
g10
sa(dp1404
g2
S'192.168.42.33'
p1405
sg4
Nsg5
S'52.31.54.81'
p1406
sg7
I80
sg8
I32921
sg9
g10
sa(dp1407
g2
S'192.168.42.33'
p1408
sg4
Nsg5
S'52.31.54.81'
p1409
sg7
I80
sg8
I45743
sg9
g10
sa(dp1410
g2
S'192.168.42.33'
p1411
sg4
Nsg5
S'52.31.54.81'
p1412
sg7
I80
sg8
I48882
sg9
g10
sa(dp1413
g2
S'52.31.54.81'
p1414
sg4
Nsg5
S'192.168.42.33'
p1415
sg7
I58088
sg8
I80
sg9
g10
sa(dp1416
g2
S'192.168.42.33'
p1417
sg4
Nsg5
S'52.31.54.81'
p1418
sg7
I80
sg8
I58088
sg9
g10
sa(dp1419
g2
S'192.168.42.33'
p1420
sg4
Nsg5
S'52.31.54.81'
p1421
sg7
I80
sg8
I60243
sg9
g10
sa(dp1422
g2
S'192.168.42.33'
p1423
sg4
Nsg5
S'52.31.54.81'
p1424
sg7
I80
sg8
I32921
sg9
g10
sa(dp1425
g2
S'192.168.42.33'
p1426
sg4
Nsg5
S'52.31.54.81'
p1427
sg7
I80
sg8
I45743
sg9
g10
sa(dp1428
g2
S'192.168.42.33'
p1429
sg4
Nsg5
S'52.31.54.81'
p1430
sg7
I80
sg8
I58088
sg9
g10
sa(dp1431
g2
S'52.31.54.81'
p1432
sg4
Nsg5
S'192.168.42.33'
p1433
sg7
I60243
sg8
I80
sg9
g10
sa(dp1434
g2
S'192.168.42.33'
p1435
sg4
Nsg5
S'52.31.54.81'
p1436
sg7
I80
sg8
I60243
sg9
g10
sa(dp1437
g2
S'192.168.42.33'
p1438
sg4
Nsg5
S'52.31.54.81'
p1439
sg7
I80
sg8
I60243
sg9
g10
sa(dp1440
g2
S'192.168.42.33'
p1441
sg4
Nsg5
S'52.31.54.81'
p1442
sg7
I80
sg8
I60243
sg9
g10
sa(dp1443
g2
S'192.168.42.33'
p1444
sg4
Nsg5
S'52.31.54.81'
p1445
sg7
I80
sg8
I48882
sg9
g10
sa(dp1446
g2
S'52.31.54.81'
p1447
sg4
Nsg5
S'192.168.42.33'
p1448
sg7
I32921
sg8
I80
sg9
g10
sa(dp1449
g2
S'52.31.54.81'
p1450
sg4
Nsg5
S'192.168.42.33'
p1451
sg7
I45743
sg8
I80
sg9
g10
sa(dp1452
g2
S'52.31.54.81'
p1453
sg4
Nsg5
S'192.168.42.33'
p1454
sg7
I58088
sg8
I80
sg9
g10
sa(dp1455
g2
S'192.168.42.33'
p1456
sg4
Nsg5
S'52.31.54.81'
p1457
sg7
I80
sg8
I32921
sg9
g10
sa(dp1458
g2
S'192.168.42.33'
p1459
sg4
Nsg5
S'52.31.54.81'
p1460
sg7
I80
sg8
I45743
sg9
g10
sa(dp1461
g2
S'192.168.42.33'
p1462
sg4
Nsg5
S'52.31.54.81'
p1463
sg7
I80
sg8
I32921
sg9
g10
sa(dp1464
g2
S'192.168.42.33'
p1465
sg4
Nsg5
S'52.31.54.81'
p1466
sg7
I80
sg8
I45743
sg9
g10
sa(dp1467
g2
S'192.168.42.33'
p1468
sg4
Nsg5
S'52.31.54.81'
p1469
sg7
I80
sg8
I58088
sg9
g10
sa(dp1470
g2
S'192.168.42.33'
p1471
sg4
Nsg5
S'52.31.54.81'
p1472
sg7
I80
sg8
I58088
sg9
g10
sa(dp1473
g2
S'52.31.54.81'
p1474
sg4
Nsg5
S'192.168.42.33'
p1475
sg7
I60243
sg8
I80
sg9
g10
sa(dp1476
g2
S'52.31.54.81'
p1477
sg4
Nsg5
S'192.168.42.33'
p1478
sg7
I60243
sg8
I80
sg9
g10
sa(dp1479
g2
S'52.31.54.81'
p1480
sg4
Nsg5
S'192.168.42.33'
p1481
sg7
I48882
sg8
I80
sg9
g10
sa(dp1482
g2
S'52.31.54.81'
p1483
sg4
Nsg5
S'192.168.42.33'
p1484
sg7
I45743
sg8
I80
sg9
g10
sa(dp1485
g2
S'52.31.54.81'
p1486
sg4
Nsg5
S'192.168.42.33'
p1487
sg7
I32921
sg8
I80
sg9
g10
sa(dp1488
g2
S'52.31.54.81'
p1489
sg4
Nsg5
S'192.168.42.33'
p1490
sg7
I58088
sg8
I80
sg9
g10
sa(dp1491
g2
S'192.168.42.33'
p1492
sg4
Nsg5
S'52.31.54.81'
p1493
sg7
I80
sg8
I48882
sg9
g10
sa(dp1494
g2
S'192.168.42.33'
p1495
sg4
Nsg5
S'52.31.54.81'
p1496
sg7
I80
sg8
I35866
sg9
g10
sa(dp1497
g2
S'192.168.42.33'
p1498
sg4
Nsg5
S'52.31.54.81'
p1499
sg7
I80
sg8
I35866
sg9
g10
sa(dp1500
g2
S'192.168.42.33'
p1501
sg4
Nsg5
S'52.31.54.81'
p1502
sg7
I80
sg8
I43922
sg9
g10
sa(dp1503
g2
S'192.168.42.33'
p1504
sg4
Nsg5
S'52.31.54.81'
p1505
sg7
I80
sg8
I43922
sg9
g10
sa(dp1506
g2
S'192.168.42.33'
p1507
sg4
Nsg5
S'52.31.54.81'
p1508
sg7
I80
sg8
I34556
sg9
g10
sa(dp1509
g2
S'192.168.42.33'
p1510
sg4
Nsg5
S'52.31.54.81'
p1511
sg7
I80
sg8
I34556
sg9
g10
sa(dp1512
g2
S'192.168.42.33'
p1513
sg4
Nsg5
S'52.31.54.81'
p1514
sg7
I80
sg8
I48882
sg9
g10
sa(dp1515
g2
S'192.168.42.33'
p1516
sg4
Nsg5
S'52.31.54.81'
p1517
sg7
I80
sg8
I37297
sg9
g10
sa(dp1518
g2
S'192.168.42.33'
p1519
sg4
Nsg5
S'52.31.54.81'
p1520
sg7
I80
sg8
I37297
sg9
g10
sa(dp1521
g2
S'192.168.42.33'
p1522
sg4
Nsg5
S'52.31.54.81'
p1523
sg7
I80
sg8
I60243
sg9
g10
sa(dp1524
g2
S'192.168.42.33'
p1525
sg4
Nsg5
S'52.31.54.81'
p1526
sg7
I80
sg8
I45743
sg9
g10
sa(dp1527
g2
S'192.168.42.33'
p1528
sg4
Nsg5
S'52.31.54.81'
p1529
sg7
I80
sg8
I32921
sg9
g10
sa(dp1530
g2
S'192.168.42.33'
p1531
sg4
Nsg5
S'52.31.54.81'
p1532
sg7
I80
sg8
I58088
sg9
g10
sa(dp1533
g2
S'52.31.54.81'
p1534
sg4
Nsg5
S'192.168.42.33'
p1535
sg7
I35866
sg8
I80
sg9
g10
sa(dp1536
g2
S'52.31.54.81'
p1537
sg4
Nsg5
S'192.168.42.33'
p1538
sg7
I35866
sg8
I80
sg9
g10
sa(dp1539
g2
S'52.31.54.81'
p1540
sg4
Nsg5
S'192.168.42.33'
p1541
sg7
I43922
sg8
I80
sg9
g10
sa(dp1542
g2
S'52.31.54.81'
p1543
sg4
Nsg5
S'192.168.42.33'
p1544
sg7
I43922
sg8
I80
sg9
g10
sa(dp1545
g2
S'52.31.54.81'
p1546
sg4
Nsg5
S'192.168.42.33'
p1547
sg7
I43922
sg8
I80
sg9
g10
sa(dp1548
g2
S'52.31.54.81'
p1549
sg4
Nsg5
S'192.168.42.33'
p1550
sg7
I34556
sg8
I80
sg9
g10
sa(dp1551
g2
S'52.31.54.81'
p1552
sg4
Nsg5
S'192.168.42.33'
p1553
sg7
I34556
sg8
I80
sg9
g10
sa(dp1554
g2
S'52.31.54.81'
p1555
sg4
Nsg5
S'192.168.42.33'
p1556
sg7
I34556
sg8
I80
sg9
g10
sa(dp1557
g2
S'52.31.54.81'
p1558
sg4
Nsg5
S'192.168.42.33'
p1559
sg7
I35866
sg8
I80
sg9
g10
sa(dp1560
g2
S'192.168.42.33'
p1561
sg4
Nsg5
S'52.31.54.81'
p1562
sg7
I80
sg8
I35866
sg9
g10
sa(dp1563
g2
S'192.168.42.33'
p1564
sg4
Nsg5
S'52.31.54.81'
p1565
sg7
I80
sg8
I35866
sg9
g10
sa(dp1566
g2
S'192.168.42.33'
p1567
sg4
Nsg5
S'52.31.54.81'
p1568
sg7
I80
sg8
I43922
sg9
g10
sa(dp1569
g2
S'192.168.42.33'
p1570
sg4
Nsg5
S'52.31.54.81'
p1571
sg7
I80
sg8
I43922
sg9
g10
sa(dp1572
g2
S'192.168.42.33'
p1573
sg4
Nsg5
S'52.31.54.81'
p1574
sg7
I80
sg8
I43922
sg9
g10
sa(dp1575
g2
S'192.168.42.33'
p1576
sg4
Nsg5
S'52.31.54.81'
p1577
sg7
I80
sg8
I34556
sg9
g10
sa(dp1578
g2
S'192.168.42.33'
p1579
sg4
Nsg5
S'52.31.54.81'
p1580
sg7
I80
sg8
I34556
sg9
g10
sa(dp1581
g2
S'192.168.42.33'
p1582
sg4
Nsg5
S'52.31.54.81'
p1583
sg7
I80
sg8
I34556
sg9
g10
sa(dp1584
g2
S'192.168.42.33'
p1585
sg4
Nsg5
S'52.31.54.81'
p1586
sg7
I80
sg8
I35866
sg9
g10
sa(dp1587
g2
S'52.31.54.81'
p1588
sg4
Nsg5
S'192.168.42.33'
p1589
sg7
I48882
sg8
I80
sg9
g10
sa(dp1590
g2
S'52.31.54.81'
p1591
sg4
Nsg5
S'192.168.42.33'
p1592
sg7
I37297
sg8
I80
sg9
g10
sa(dp1593
g2
S'52.31.54.81'
p1594
sg4
Nsg5
S'192.168.42.33'
p1595
sg7
I37297
sg8
I80
sg9
g10
sa(dp1596
g2
S'192.168.42.33'
p1597
sg4
Nsg5
S'52.31.54.81'
p1598
sg7
I80
sg8
I37297
sg9
g10
sa(dp1599
g2
S'192.168.42.33'
p1600
sg4
Nsg5
S'52.31.54.81'
p1601
sg7
I80
sg8
I44976
sg9
g10
sa(dp1602
g2
S'192.168.42.33'
p1603
sg4
Nsg5
S'52.31.54.81'
p1604
sg7
I80
sg8
I37297
sg9
g10
sa(dp1605
g2
S'192.168.42.33'
p1606
sg4
Nsg5
S'52.31.54.81'
p1607
sg7
I80
sg8
I44976
sg9
g10
sa(dp1608
g2
S'192.168.42.33'
p1609
sg4
Nsg5
S'52.31.54.81'
p1610
sg7
I80
sg8
I48882
sg9
g10
sa(dp1611
g2
S'52.31.54.81'
p1612
sg4
Nsg5
S'192.168.42.33'
p1613
sg7
I44976
sg8
I80
sg9
g10
sa(dp1614
g2
S'52.31.54.81'
p1615
sg4
Nsg5
S'192.168.42.33'
p1616
sg7
I44976
sg8
I80
sg9
g10
sa(dp1617
g2
S'52.31.54.81'
p1618
sg4
Nsg5
S'192.168.42.33'
p1619
sg7
I44976
sg8
I80
sg9
g10
sa(dp1620
g2
S'192.168.42.33'
p1621
sg4
Nsg5
S'52.31.54.81'
p1622
sg7
I80
sg8
I44976
sg9
g10
sa(dp1623
g2
S'192.168.42.33'
p1624
sg4
Nsg5
S'52.31.54.81'
p1625
sg7
I80
sg8
I44976
sg9
g10
sa(dp1626
g2
S'192.168.42.33'
p1627
sg4
Nsg5
S'52.31.54.81'
p1628
sg7
I80
sg8
I44976
sg9
g10
sa.